

Microchip MPLAB XC8 Assembler V2.40 build 20220703182018 
                                                                                               Thu Sep 29 21:43:09 2022

Microchip MPLAB XC8 C Compiler v2.40 (Free license) build 20220703182018 Og1 
     1                           	processor	16F877A
     2                           	pagewidth 120
     3                           	opt	flic
     4                           	psect	idataCOMMON,global,class=CODE,delta=2,noexec
     5                           	psect	idataBANK0,global,class=CODE,delta=2,noexec
     6                           	psect	strings,global,class=STRING,delta=2,noexec
     7                           	psect	cinit,global,class=CODE,merge=1,delta=2
     8                           	psect	dataCOMMON,global,class=COMMON,space=1,delta=1,noexec
     9                           	psect	bssBANK0,global,class=BANK0,space=1,delta=1,noexec
    10                           	psect	dataBANK0,global,class=BANK0,space=1,delta=1,noexec
    11                           	psect	inittext,global,class=CODE,delta=2
    12                           	psect	cstackCOMMON,global,class=COMMON,space=1,delta=1,noexec
    13                           	psect	cstackBANK0,global,class=BANK0,space=1,delta=1,noexec
    14                           	psect	maintext,global,class=CODE,split=1,delta=2
    15                           	psect	text1,local,class=CODE,merge=1,delta=2,group=2
    16                           	psect	text2,local,class=CODE,merge=1,delta=2
    17                           	psect	text3,local,class=CODE,merge=1,delta=2
    18                           	psect	text4,local,class=CODE,merge=1,delta=2
    19                           	psect	text5,local,class=CODE,merge=1,delta=2
    20                           	psect	text6,local,class=CODE,merge=1,delta=2
    21                           	psect	text7,local,class=CODE,merge=1,delta=2
    22                           	psect	text8,local,class=CODE,merge=1,delta=2
    23                           	psect	text9,local,class=CODE,merge=1,delta=2
    24                           	psect	config,global,abs,ovrld,class=CONFIG,space=4,delta=2,noexec
    25                           	dabs	1,0x7E,2
    26     0000                     
    27                           ; Version 2.20
    28                           ; Generated 12/02/2020 GMT
    29                           ; 
    30                           ; Copyright © 2020, Microchip Technology Inc. and its subsidiaries ("Microchip")
    31                           ; All rights reserved.
    32                           ; 
    33                           ; This software is developed by Microchip Technology Inc. and its subsidiaries ("Microch
      +                          ip").
    34                           ; 
    35                           ; Redistribution and use in source and binary forms, with or without modification, are
    36                           ; permitted provided that the following conditions are met:
    37                           ; 
    38                           ;     1. Redistributions of source code must retain the above copyright notice, this lis
      +                          t of
    39                           ;        conditions and the following disclaimer.
    40                           ; 
    41                           ;     2. Redistributions in binary form must reproduce the above copyright notice, this 
      +                          list
    42                           ;        of conditions and the following disclaimer in the documentation and/or other
    43                           ;        materials provided with the distribution.
    44                           ; 
    45                           ;     3. Microchip's name may not be used to endorse or promote products derived from th
      +                          is
    46                           ;        software without specific prior written permission.
    47                           ; 
    48                           ; THIS SOFTWARE IS PROVIDED BY MICROCHIP "AS IS" AND ANY EXPRESS OR IMPLIED WARRANTIES,
    49                           ; INCLUDING, BUT NOT LIMITED TO, THE IMPLIED WARRANTIES OF MERCHANTABILITY AND FITNESS F
      +                          OR
    50                           ; PURPOSE ARE DISCLAIMED.  IN NO EVENT SHALL MICROCHIP BE LIABLE FOR ANY DIRECT, INDIREC
      +                          T,
    51                           ; INCIDENTAL, SPECIAL, EXEMPLARY, OR CONSEQUENTIAL DAMAGES (INCLUDING BUT NOT LIMITED TO
    52                           ; PROCUREMENT OF SUBSTITUTE GOODS OR SERVICES; LOSS OF USE, DATA OR PROFITS; OR BUSINESS
    53                           ; INTERRUPTION) HOWSOEVER CAUSED AND ON ANY THEORY OF LIABILITY, WHETHER IN CONTRACT, ST
      +                          RICT
    54                           ; LIABILITY, OR TORT (INCLUDING NEGLIGENCE OR OTHERWISE) ARISING IN ANY WAY OUT OF THE U
      +                          SE OF
    55                           ; THIS SOFTWARE, EVEN IF ADVISED OF THE POSSIBILITY OF SUCH DAMAGE.
    56                           ; 
    57                           ; 
    58                           ; Code-generator required, PIC16F877A Definitions
    59                           ; 
    60                           ; SFR Addresses
    61     0000                     	;# 
    62     0001                     	;# 
    63     0002                     	;# 
    64     0003                     	;# 
    65     0004                     	;# 
    66     0005                     	;# 
    67     0006                     	;# 
    68     0007                     	;# 
    69     0008                     	;# 
    70     0009                     	;# 
    71     000A                     	;# 
    72     000B                     	;# 
    73     000C                     	;# 
    74     000D                     	;# 
    75     000E                     	;# 
    76     000E                     	;# 
    77     000F                     	;# 
    78     0010                     	;# 
    79     0011                     	;# 
    80     0012                     	;# 
    81     0013                     	;# 
    82     0014                     	;# 
    83     0015                     	;# 
    84     0015                     	;# 
    85     0016                     	;# 
    86     0017                     	;# 
    87     0018                     	;# 
    88     0019                     	;# 
    89     001A                     	;# 
    90     001B                     	;# 
    91     001B                     	;# 
    92     001C                     	;# 
    93     001D                     	;# 
    94     001E                     	;# 
    95     001F                     	;# 
    96     0081                     	;# 
    97     0085                     	;# 
    98     0086                     	;# 
    99     0087                     	;# 
   100     0088                     	;# 
   101     0089                     	;# 
   102     008C                     	;# 
   103     008D                     	;# 
   104     008E                     	;# 
   105     0091                     	;# 
   106     0092                     	;# 
   107     0093                     	;# 
   108     0094                     	;# 
   109     0098                     	;# 
   110     0099                     	;# 
   111     009C                     	;# 
   112     009D                     	;# 
   113     009E                     	;# 
   114     009F                     	;# 
   115     010C                     	;# 
   116     010D                     	;# 
   117     010E                     	;# 
   118     010F                     	;# 
   119     018C                     	;# 
   120     018D                     	;# 
   121     0000                     	;# 
   122     0001                     	;# 
   123     0002                     	;# 
   124     0003                     	;# 
   125     0004                     	;# 
   126     0005                     	;# 
   127     0006                     	;# 
   128     0007                     	;# 
   129     0008                     	;# 
   130     0009                     	;# 
   131     000A                     	;# 
   132     000B                     	;# 
   133     000C                     	;# 
   134     000D                     	;# 
   135     000E                     	;# 
   136     000E                     	;# 
   137     000F                     	;# 
   138     0010                     	;# 
   139     0011                     	;# 
   140     0012                     	;# 
   141     0013                     	;# 
   142     0014                     	;# 
   143     0015                     	;# 
   144     0015                     	;# 
   145     0016                     	;# 
   146     0017                     	;# 
   147     0018                     	;# 
   148     0019                     	;# 
   149     001A                     	;# 
   150     001B                     	;# 
   151     001B                     	;# 
   152     001C                     	;# 
   153     001D                     	;# 
   154     001E                     	;# 
   155     001F                     	;# 
   156     0081                     	;# 
   157     0085                     	;# 
   158     0086                     	;# 
   159     0087                     	;# 
   160     0088                     	;# 
   161     0089                     	;# 
   162     008C                     	;# 
   163     008D                     	;# 
   164     008E                     	;# 
   165     0091                     	;# 
   166     0092                     	;# 
   167     0093                     	;# 
   168     0094                     	;# 
   169     0098                     	;# 
   170     0099                     	;# 
   171     009C                     	;# 
   172     009D                     	;# 
   173     009E                     	;# 
   174     009F                     	;# 
   175     010C                     	;# 
   176     010D                     	;# 
   177     010E                     	;# 
   178     010F                     	;# 
   179     018C                     	;# 
   180     018D                     	;# 
   181     0000                     	;# 
   182     0001                     	;# 
   183     0002                     	;# 
   184     0003                     	;# 
   185     0004                     	;# 
   186     0005                     	;# 
   187     0006                     	;# 
   188     0007                     	;# 
   189     0008                     	;# 
   190     0009                     	;# 
   191     000A                     	;# 
   192     000B                     	;# 
   193     000C                     	;# 
   194     000D                     	;# 
   195     000E                     	;# 
   196     000E                     	;# 
   197     000F                     	;# 
   198     0010                     	;# 
   199     0011                     	;# 
   200     0012                     	;# 
   201     0013                     	;# 
   202     0014                     	;# 
   203     0015                     	;# 
   204     0015                     	;# 
   205     0016                     	;# 
   206     0017                     	;# 
   207     0018                     	;# 
   208     0019                     	;# 
   209     001A                     	;# 
   210     001B                     	;# 
   211     001B                     	;# 
   212     001C                     	;# 
   213     001D                     	;# 
   214     001E                     	;# 
   215     001F                     	;# 
   216     0081                     	;# 
   217     0085                     	;# 
   218     0086                     	;# 
   219     0087                     	;# 
   220     0088                     	;# 
   221     0089                     	;# 
   222     008C                     	;# 
   223     008D                     	;# 
   224     008E                     	;# 
   225     0091                     	;# 
   226     0092                     	;# 
   227     0093                     	;# 
   228     0094                     	;# 
   229     0098                     	;# 
   230     0099                     	;# 
   231     009C                     	;# 
   232     009D                     	;# 
   233     009E                     	;# 
   234     009F                     	;# 
   235     010C                     	;# 
   236     010D                     	;# 
   237     010E                     	;# 
   238     010F                     	;# 
   239     018C                     	;# 
   240     018D                     	;# 
   241     0000                     	;# 
   242     0001                     	;# 
   243     0002                     	;# 
   244     0003                     	;# 
   245     0004                     	;# 
   246     0005                     	;# 
   247     0006                     	;# 
   248     0007                     	;# 
   249     0008                     	;# 
   250     0009                     	;# 
   251     000A                     	;# 
   252     000B                     	;# 
   253     000C                     	;# 
   254     000D                     	;# 
   255     000E                     	;# 
   256     000E                     	;# 
   257     000F                     	;# 
   258     0010                     	;# 
   259     0011                     	;# 
   260     0012                     	;# 
   261     0013                     	;# 
   262     0014                     	;# 
   263     0015                     	;# 
   264     0015                     	;# 
   265     0016                     	;# 
   266     0017                     	;# 
   267     0018                     	;# 
   268     0019                     	;# 
   269     001A                     	;# 
   270     001B                     	;# 
   271     001B                     	;# 
   272     001C                     	;# 
   273     001D                     	;# 
   274     001E                     	;# 
   275     001F                     	;# 
   276     0081                     	;# 
   277     0085                     	;# 
   278     0086                     	;# 
   279     0087                     	;# 
   280     0088                     	;# 
   281     0089                     	;# 
   282     008C                     	;# 
   283     008D                     	;# 
   284     008E                     	;# 
   285     0091                     	;# 
   286     0092                     	;# 
   287     0093                     	;# 
   288     0094                     	;# 
   289     0098                     	;# 
   290     0099                     	;# 
   291     009C                     	;# 
   292     009D                     	;# 
   293     009E                     	;# 
   294     009F                     	;# 
   295     010C                     	;# 
   296     010D                     	;# 
   297     010E                     	;# 
   298     010F                     	;# 
   299     018C                     	;# 
   300     018D                     	;# 
   301                           
   302                           	psect	idataCOMMON
   303     019A                     __pidataCOMMON:
   304                           
   305                           ;initializer for read_matrix_keypad@once
   306     019A  3401               	retlw	1
   307                           
   308                           	psect	idataBANK0
   309     019B                     __pidataBANK0:
   310                           
   311                           ;initializer for main@F869
   312     019B  3430               	retlw	48
   313     019C  3430               	retlw	48
   314     019D  3430               	retlw	48
   315     019E  3430               	retlw	48
   316     019F  3430               	retlw	48
   317     01A0  3430               	retlw	48
   318     01A1  3430               	retlw	48
   319     01A2  3430               	retlw	48
   320     01A3  3400               	retlw	0
   321     0006                     _PORTB	set	6
   322     0008                     _PORTD	set	8
   323     0037                     _RB7	set	55
   324     0032                     _RB2	set	50
   325     0031                     _RB1	set	49
   326     0030                     _RB0	set	48
   327     0040                     _RD0	set	64
   328     0041                     _RD1	set	65
   329     0042                     _RD2	set	66
   330     0043                     _RD3	set	67
   331     0049                     _RE1	set	73
   332     004A                     _RE2	set	74
   333     0086                     _TRISB	set	134
   334     0088                     _TRISD	set	136
   335     040F                     _nRBPU	set	1039
   336     0449                     _TRISE1	set	1097
   337     044A                     _TRISE2	set	1098
   338                           
   339                           	psect	strings
   340     0003                     __pstrings:
   341     0003                     stringtab:
   342     0003                     __stringtab:
   343     0003                     stringcode:	
   344                           ;	String table - string pointers are 1 byte each
   345                           
   346     0003                     stringdir:
   347     0003  3000               	movlw	high stringdir
   348     0004  008A               	movwf	10
   349     0005  0804               	movf	4,w
   350     0006  0A84               	incf	4,f
   351     0007  0782               	addwf	2,f
   352     0008                     __stringbase:
   353     0008  3400               	retlw	0
   354     0009                     __end_of__stringtab:
   355     0009                     STR_37:
   356     0009  3420               	retlw	32	;' '
   357     000A  3420               	retlw	32	;' '
   358     000B  3420               	retlw	32	;' '
   359     000C  3420               	retlw	32	;' '
   360     000D  3420               	retlw	32	;' '
   361     000E  3420               	retlw	32	;' '
   362     000F  3420               	retlw	32	;' '
   363     0010  3420               	retlw	32	;' '
   364     0011  3420               	retlw	32	;' '
   365     0012  3420               	retlw	32	;' '
   366     0013  3420               	retlw	32	;' '
   367     0014  3420               	retlw	32	;' '
   368     0015  3420               	retlw	32	;' '
   369     0016  3420               	retlw	32	;' '
   370     0017  3420               	retlw	32	;' '
   371     0018  3420               	retlw	32	;' '
   372     0019  3400               	retlw	0
   373     001A                     STR_35:
   374     001A  3449               	retlw	73	;'I'
   375     001B  346E               	retlw	110	;'n'
   376     001C  3463               	retlw	99	;'c'
   377     001D  346F               	retlw	111	;'o'
   378     001E  3472               	retlw	114	;'r'
   379     001F  3472               	retlw	114	;'r'
   380     0020  3465               	retlw	101	;'e'
   381     0021  3463               	retlw	99	;'c'
   382     0022  3474               	retlw	116	;'t'
   383     0023  3420               	retlw	32	;' '
   384     0024  3470               	retlw	112	;'p'
   385     0025  3461               	retlw	97	;'a'
   386     0026  3473               	retlw	115	;'s'
   387     0027  3473               	retlw	115	;'s'
   388     0028  3420               	retlw	32	;' '
   389     0029  3431               	retlw	49	;'1'
   390     002A  3400               	retlw	0
   391     002B                     STR_33:
   392     002B  3449               	retlw	73	;'I'
   393     002C  346E               	retlw	110	;'n'
   394     002D  3463               	retlw	99	;'c'
   395     002E  346F               	retlw	111	;'o'
   396     002F  3472               	retlw	114	;'r'
   397     0030  3472               	retlw	114	;'r'
   398     0031  3465               	retlw	101	;'e'
   399     0032  3463               	retlw	99	;'c'
   400     0033  3474               	retlw	116	;'t'
   401     0034  3420               	retlw	32	;' '
   402     0035  3470               	retlw	112	;'p'
   403     0036  3461               	retlw	97	;'a'
   404     0037  3473               	retlw	115	;'s'
   405     0038  3473               	retlw	115	;'s'
   406     0039  3420               	retlw	32	;' '
   407     003A  3432               	retlw	50	;'2'
   408     003B  3400               	retlw	0
   409     003C                     STR_31:
   410     003C  3449               	retlw	73	;'I'
   411     003D  346E               	retlw	110	;'n'
   412     003E  3463               	retlw	99	;'c'
   413     003F  346F               	retlw	111	;'o'
   414     0040  3472               	retlw	114	;'r'
   415     0041  3472               	retlw	114	;'r'
   416     0042  3465               	retlw	101	;'e'
   417     0043  3463               	retlw	99	;'c'
   418     0044  3474               	retlw	116	;'t'
   419     0045  3420               	retlw	32	;' '
   420     0046  3470               	retlw	112	;'p'
   421     0047  3461               	retlw	97	;'a'
   422     0048  3473               	retlw	115	;'s'
   423     0049  3473               	retlw	115	;'s'
   424     004A  3420               	retlw	32	;' '
   425     004B  3433               	retlw	51	;'3'
   426     004C  3400               	retlw	0
   427     004D                     STR_29:
   428     004D  3449               	retlw	73	;'I'
   429     004E  346E               	retlw	110	;'n'
   430     004F  3463               	retlw	99	;'c'
   431     0050  346F               	retlw	111	;'o'
   432     0051  3472               	retlw	114	;'r'
   433     0052  3472               	retlw	114	;'r'
   434     0053  3465               	retlw	101	;'e'
   435     0054  3463               	retlw	99	;'c'
   436     0055  3474               	retlw	116	;'t'
   437     0056  3420               	retlw	32	;' '
   438     0057  3470               	retlw	112	;'p'
   439     0058  3461               	retlw	97	;'a'
   440     0059  3473               	retlw	115	;'s'
   441     005A  3473               	retlw	115	;'s'
   442     005B  3420               	retlw	32	;' '
   443     005C  3434               	retlw	52	;'4'
   444     005D  3400               	retlw	0
   445     005E                     STR_27:
   446     005E  3449               	retlw	73	;'I'
   447     005F  346E               	retlw	110	;'n'
   448     0060  3463               	retlw	99	;'c'
   449     0061  346F               	retlw	111	;'o'
   450     0062  3472               	retlw	114	;'r'
   451     0063  3472               	retlw	114	;'r'
   452     0064  3465               	retlw	101	;'e'
   453     0065  3463               	retlw	99	;'c'
   454     0066  3474               	retlw	116	;'t'
   455     0067  3420               	retlw	32	;' '
   456     0068  3470               	retlw	112	;'p'
   457     0069  3461               	retlw	97	;'a'
   458     006A  3473               	retlw	115	;'s'
   459     006B  3473               	retlw	115	;'s'
   460     006C  3420               	retlw	32	;' '
   461     006D  3435               	retlw	53	;'5'
   462     006E  3400               	retlw	0
   463     006F                     STR_26:
   464     006F  3443               	retlw	67	;'C'
   465     0070  346F               	retlw	111	;'o'
   466     0071  3472               	retlw	114	;'r'
   467     0072  3472               	retlw	114	;'r'
   468     0073  3465               	retlw	101	;'e'
   469     0074  3463               	retlw	99	;'c'
   470     0075  3474               	retlw	116	;'t'
   471     0076  3420               	retlw	32	;' '
   472     0077  3450               	retlw	80	;'P'
   473     0078  3461               	retlw	97	;'a'
   474     0079  3473               	retlw	115	;'s'
   475     007A  3473               	retlw	115	;'s'
   476     007B  3477               	retlw	119	;'w'
   477     007C  346F               	retlw	111	;'o'
   478     007D  3472               	retlw	114	;'r'
   479     007E  3464               	retlw	100	;'d'
   480     007F  3400               	retlw	0
   481     0080                     STR_25:
   482     0080  3459               	retlw	89	;'Y'
   483     0081  3465               	retlw	101	;'e'
   484     0082  3473               	retlw	115	;'s'
   485     0083  342C               	retlw	44	;','
   486     0084  3420               	retlw	32	;' '
   487     0085  3450               	retlw	80	;'P'
   488     0086  3461               	retlw	97	;'a'
   489     0087  3473               	retlw	115	;'s'
   490     0088  3473               	retlw	115	;'s'
   491     0089  3477               	retlw	119	;'w'
   492     008A  346F               	retlw	111	;'o'
   493     008B  3472               	retlw	114	;'r'
   494     008C  3464               	retlw	100	;'d'
   495     008D  3420               	retlw	32	;' '
   496     008E  3469               	retlw	105	;'i'
   497     008F  3473               	retlw	115	;'s'
   498     0090  3400               	retlw	0
   499     0091                     STR_28:
   500     0091  3420               	retlw	32	;' '
   501     0092  3441               	retlw	65	;'A'
   502     0093  3474               	retlw	116	;'t'
   503     0094  3474               	retlw	116	;'t'
   504     0095  3465               	retlw	101	;'e'
   505     0096  346D               	retlw	109	;'m'
   506     0097  3470               	retlw	112	;'p'
   507     0098  3474               	retlw	116	;'t'
   508     0099  3420               	retlw	32	;' '
   509     009A  344C               	retlw	76	;'L'
   510     009B  3465               	retlw	101	;'e'
   511     009C  3466               	retlw	102	;'f'
   512     009D  3474               	retlw	116	;'t'
   513     009E  3420               	retlw	32	;' '
   514     009F  3420               	retlw	32	;' '
   515     00A0  3400               	retlw	0
   516     00A1                     STR_40:
   517     00A1  3452               	retlw	82	;'R'
   518     00A2  3465               	retlw	101	;'e'
   519     00A3  3473               	retlw	115	;'s'
   520     00A4  3465               	retlw	101	;'e'
   521     00A5  3474               	retlw	116	;'t'
   522     00A6  3420               	retlw	32	;' '
   523     00A7  3474               	retlw	116	;'t'
   524     00A8  3468               	retlw	104	;'h'
   525     00A9  3465               	retlw	101	;'e'
   526     00AA  3420               	retlw	32	;' '
   527     00AB  3442               	retlw	66	;'B'
   528     00AC  346F               	retlw	111	;'o'
   529     00AD  3461               	retlw	97	;'a'
   530     00AE  3472               	retlw	114	;'r'
   531     00AF  3464               	retlw	100	;'d'
   532     00B0  3400               	retlw	0
   533     00B1                     STR_1:
   534     00B1  3445               	retlw	69	;'E'
   535     00B2  346E               	retlw	110	;'n'
   536     00B3  3474               	retlw	116	;'t'
   537     00B4  3465               	retlw	101	;'e'
   538     00B5  3472               	retlw	114	;'r'
   539     00B6  3420               	retlw	32	;' '
   540     00B7  3450               	retlw	80	;'P'
   541     00B8  3461               	retlw	97	;'a'
   542     00B9  3473               	retlw	115	;'s'
   543     00BA  3473               	retlw	115	;'s'
   544     00BB  3477               	retlw	119	;'w'
   545     00BC  346F               	retlw	111	;'o'
   546     00BD  3472               	retlw	114	;'r'
   547     00BE  3464               	retlw	100	;'d'
   548     00BF  3400               	retlw	0
   549     00C0                     STR_39:
   550     00C0  3441               	retlw	65	;'A'
   551     00C1  3474               	retlw	116	;'t'
   552     00C2  3474               	retlw	116	;'t'
   553     00C3  346D               	retlw	109	;'m'
   554     00C4  3470               	retlw	112	;'p'
   555     00C5  3474               	retlw	116	;'t'
   556     00C6  3420               	retlw	32	;' '
   557     00C7  344D               	retlw	77	;'M'
   558     00C8  3461               	retlw	97	;'a'
   559     00C9  3478               	retlw	120	;'x'
   560     00CA  3469               	retlw	105	;'i'
   561     00CB  346D               	retlw	109	;'m'
   562     00CC  3475               	retlw	117	;'u'
   563     00CD  346D               	retlw	109	;'m'
   564     00CE  3400               	retlw	0
   565     00CF                     STR_22:
   566     00CF  342A               	retlw	42	;'*'
   567     00D0  342A               	retlw	42	;'*'
   568     00D1  342A               	retlw	42	;'*'
   569     00D2  342A               	retlw	42	;'*'
   570     00D3  342A               	retlw	42	;'*'
   571     00D4  342A               	retlw	42	;'*'
   572     00D5  342A               	retlw	42	;'*'
   573     00D6  3400               	retlw	0
   574     00D7                     STR_2:
   575     00D7  345F               	retlw	95	;'_'
   576     00D8  3400               	retlw	0
   577     0018                     
   578                           	psect	cinit
   579     07E6                     start_initialization:	
   580                           ; #config settings
   581                           
   582     07E6                     __initialization:
   583                           
   584                           ; Initialize objects allocated to BANK0
   585     07E6  1383               	bcf	3,7	;select IRP bank0
   586     07E7  304A               	movlw	low (__pdataBANK0+9)
   587     07E8  00FD               	movwf	btemp+-1
   588     07E9  3001               	movlw	high __pidataBANK0
   589     07EA  00FE               	movwf	btemp
   590     07EB  309B               	movlw	low __pidataBANK0
   591     07EC  00FF               	movwf	btemp+1
   592     07ED  3041               	movlw	low __pdataBANK0
   593     07EE  0084               	movwf	4
   594     07EF  120A  118A  21C3  120A  118A  	fcall	init_ram0
   595                           
   596                           ; Initialize objects allocated to COMMON
   597     07F4  120A  118A  219A  120A  118A  	fcall	__pidataCOMMON	;fetch initializer
   598     07F9  00FB               	movwf	__pdataCOMMON& (0+127)
   599                           
   600                           ; Clear objects allocated to BANK0
   601     07FA  01CA               	clrf	__pbssBANK0& (0+127)
   602     07FB  01CB               	clrf	(__pbssBANK0+1)& (0+127)
   603     07FC                     end_of_initialization:	
   604                           ;End of C runtime variable initialization code
   605                           
   606     07FC                     __end_of__initialization:
   607     07FC  0183               	clrf	3
   608     07FD  120A  118A  2B9E   	ljmp	_main	;jump to C main() function
   609                           
   610                           	psect	dataCOMMON
   611     007B                     __pdataCOMMON:
   612     007B                     read_matrix_keypad@once:
   613     007B                     	ds	1
   614                           
   615                           	psect	bssBANK0
   616     004A                     __pbssBANK0:
   617     004A                     main@i:
   618     004A                     	ds	2
   619                           
   620                           	psect	dataBANK0
   621     0041                     __pdataBANK0:
   622     0041                     main@F869:
   623     0041                     	ds	9
   624                           
   625                           	psect	inittext
   626     01BF                     init_fetch0:	
   627                           ;	Called with low address in FSR and high address in W
   628                           
   629     01BF  087E               	movf	btemp,w
   630     01C0  008A               	movwf	10
   631     01C1  087F               	movf	btemp+1,w
   632     01C2  0082               	movwf	2
   633     01C3                     init_ram0:	
   634                           ;Called with:
   635                           ;	high address of idata address in btemp 
   636                           ;	low address of idata address in btemp+1 
   637                           ;	low address of data in FSR
   638                           ;	high address + 1 of data in btemp-1
   639                           
   640     01C3  120A  118A  21BF  120A  118A  	fcall	init_fetch0
   641     01C8  0080               	movwf	0
   642     01C9  0A84               	incf	4,f
   643     01CA  0804               	movf	4,w
   644     01CB  067D               	xorwf	btemp+-1,w
   645     01CC  1903               	btfsc	3,2
   646     01CD  3400               	retlw	0
   647     01CE  0AFF               	incf	btemp+1,f
   648     01CF  1903               	btfsc	3,2
   649     01D0  0AFE               	incf	btemp,f
   650     01D1  29C3               	goto	init_ram0
   651                           
   652                           	psect	cstackCOMMON
   653     0070                     __pcstackCOMMON:
   654     0070                     ?_clcd_write:
   655     0070                     ?_init_display_controller:	
   656                           ; 1 bytes @ 0x0
   657                           
   658     0070                     ?_init_clcd:	
   659                           ; 1 bytes @ 0x0
   660                           
   661     0070                     ?_init_matrix_keypad:	
   662                           ; 1 bytes @ 0x0
   663                           
   664     0070                     ??_init_matrix_keypad:	
   665                           ; 1 bytes @ 0x0
   666                           
   667     0070                     ?_scan_keypad:	
   668                           ; 1 bytes @ 0x0
   669                           
   670     0070                     ??_scan_keypad:	
   671                           ; 1 bytes @ 0x0
   672                           
   673     0070                     ?_read_matrix_keypad:	
   674                           ; 1 bytes @ 0x0
   675                           
   676     0070                     ?_init_config:	
   677                           ; 1 bytes @ 0x0
   678                           
   679     0070                     ?_main:	
   680                           ; 1 bytes @ 0x0
   681                           
   682     0070                     ?_strcmp:	
   683                           ; 1 bytes @ 0x0
   684                           
   685     0070                     clcd_write@mode:	
   686                           ; 2 bytes @ 0x0
   687                           
   688     0070                     strcmp@s2:	
   689                           ; 1 bytes @ 0x0
   690                           
   691     0070                     scan_keypad@i:	
   692                           ; 1 bytes @ 0x0
   693                           
   694                           
   695                           ; 2 bytes @ 0x0
   696     0070                     	ds	1
   697     0071                     ??_clcd_write:
   698                           
   699                           ; 1 bytes @ 0x1
   700     0071                     	ds	1
   701     0072                     ??_strcmp:
   702     0072                     ??_read_matrix_keypad:	
   703                           ; 1 bytes @ 0x2
   704                           
   705     0072                     read_matrix_keypad@mode:	
   706                           ; 1 bytes @ 0x2
   707                           
   708                           
   709                           ; 1 bytes @ 0x2
   710     0072                     	ds	1
   711     0073                     clcd_write@byte:
   712     0073                     read_matrix_keypad@key:	
   713                           ; 1 bytes @ 0x3
   714                           
   715                           
   716                           ; 1 bytes @ 0x3
   717     0073                     	ds	1
   718     0074                     ??_init_display_controller:
   719     0074                     ?_clcd_print:	
   720                           ; 1 bytes @ 0x4
   721                           
   722     0074                     clcd_print@addr:	
   723                           ; 1 bytes @ 0x4
   724                           
   725     0074                     strcmp@r:	
   726                           ; 1 bytes @ 0x4
   727                           
   728                           
   729                           ; 1 bytes @ 0x4
   730     0074                     	ds	1
   731     0075                     ??_clcd_print:
   732     0075                     strcmp@s1:	
   733                           ; 1 bytes @ 0x5
   734                           
   735                           
   736                           ; 1 bytes @ 0x5
   737     0075                     	ds	1
   738     0076                     ??_init_clcd:
   739     0076                     ??_init_config:	
   740                           ; 1 bytes @ 0x6
   741                           
   742     0076                     clcd_print@str:	
   743                           ; 1 bytes @ 0x6
   744                           
   745                           
   746                           ; 1 bytes @ 0x6
   747     0076                     	ds	1
   748     0077                     ??_main:
   749                           
   750                           ; 1 bytes @ 0x7
   751     0077                     	ds	4
   752                           
   753                           	psect	cstackBANK0
   754     0020                     __pcstackBANK0:
   755     0020                     main@message:
   756                           
   757                           ; 9 bytes @ 0x0
   758     0020                     	ds	9
   759     0029                     main@user_pass:
   760                           
   761                           ; 9 bytes @ 0x9
   762     0029                     	ds	9
   763     0032                     main@j:
   764                           
   765                           ; 4 bytes @ 0x12
   766     0032                     	ds	4
   767     0036                     main@key:
   768                           
   769                           ; 1 bytes @ 0x16
   770     0036                     	ds	1
   771     0037                     main@wait:
   772                           
   773                           ; 4 bytes @ 0x17
   774     0037                     	ds	4
   775     003B                     main@wait2:
   776                           
   777                           ; 4 bytes @ 0x1B
   778     003B                     	ds	4
   779     003F                     main@attempt:
   780                           
   781                           ; 2 bytes @ 0x1F
   782     003F                     	ds	2
   783                           
   784                           	psect	maintext
   785     039E                     __pmaintext:	
   786 ;;
   787 ;;Main: autosize = 0, tempsize = 4, incstack = 0, save=0
   788 ;;
   789 ;; *************** function _main *****************
   790 ;; Defined at:
   791 ;;		line 40 in file "main.c"
   792 ;; Parameters:    Size  Location     Type
   793 ;;		None
   794 ;; Auto vars:     Size  Location     Type
   795 ;;  j               4   18[BANK0 ] long 
   796 ;;  user_pass       9    9[BANK0 ] unsigned char [9]
   797 ;;  message         9    0[BANK0 ] unsigned char [9]
   798 ;;  wait2           4   27[BANK0 ] unsigned long 
   799 ;;  wait            4   23[BANK0 ] unsigned long 
   800 ;;  first           4    0        unsigned long 
   801 ;;  attempt         2   31[BANK0 ] int 
   802 ;;  key             1   22[BANK0 ] unsigned char 
   803 ;;  key_copy        1    0        unsigned char 
   804 ;;  temp            1    0        unsigned char 
   805 ;; Return value:  Size  Location     Type
   806 ;;                  1    wreg      void 
   807 ;; Registers used:
   808 ;;		wreg, fsr0l, fsr0h, status,2, status,0, btemp+1, pclath, cstack
   809 ;; Tracked objects:
   810 ;;		On entry : B00/0
   811 ;;		On exit  : 0/0
   812 ;;		Unchanged: 0/0
   813 ;; Data sizes:     COMMON   BANK0   BANK1   BANK3   BANK2
   814 ;;      Params:         0       0       0       0       0
   815 ;;      Locals:         0      33       0       0       0
   816 ;;      Temps:          4       0       0       0       0
   817 ;;      Totals:         4      33       0       0       0
   818 ;;Total ram usage:       37 bytes
   819 ;; Hardware stack levels required when called: 4
   820 ;; This function calls:
   821 ;;		_clcd_print
   822 ;;		_init_config
   823 ;;		_read_matrix_keypad
   824 ;;		_strcmp
   825 ;; This function is called by:
   826 ;;		Startup code after reset
   827 ;; This function uses a non-reentrant model
   828 ;;
   829                           
   830     039E                     _main:	
   831                           ;psect for function _main
   832                           
   833     039E                     l1414:	
   834                           ;incstack = 0
   835                           ; Regs used in _main: [wreg-fsr0h+status,2+status,0+btemp+1+pclath+cstack]
   836                           
   837                           
   838                           ;main.c: 43:                   clcd_print(" ",(0xC0 + 4));
   839     039E  120A  118A  21D2  120A  118A  	fcall	_init_config
   840     03A3                     l1416:
   841                           
   842                           ;main.c: 44:               }
   843     03A3  3000               	movlw	0
   844     03A4  1283               	bcf	3,5	;RP0=0, select bank0
   845     03A5  1303               	bcf	3,6	;RP1=0, select bank0
   846     03A6  00BA               	movwf	main@wait+3
   847     03A7  3000               	movlw	0
   848     03A8  00B9               	movwf	main@wait+2
   849     03A9  3000               	movlw	0
   850     03AA  00B8               	movwf	main@wait+1
   851     03AB  3000               	movlw	0
   852     03AC  00B7               	movwf	main@wait
   853     03AD                     l1418:
   854     03AD  3000               	movlw	0
   855     03AE  00BE               	movwf	main@wait2+3
   856     03AF  3000               	movlw	0
   857     03B0  00BD               	movwf	main@wait2+2
   858     03B1  3000               	movlw	0
   859     03B2  00BC               	movwf	main@wait2+1
   860     03B3  3000               	movlw	0
   861     03B4  00BB               	movwf	main@wait2
   862     03B5                     l1420:
   863                           
   864                           ;main.c: 45:               if(i == 1)
   865     03B5  3005               	movlw	5
   866     03B6  00BF               	movwf	main@attempt
   867     03B7  3000               	movlw	0
   868     03B8  00C0               	movwf	main@attempt+1
   869     03B9                     l1422:
   870                           
   871                           ;main.c: 46:               {;main.c: 47:                  clcd_print("*",(0xC0 + 4));
   872     03B9  3020               	movlw	main@message& (0+255)
   873     03BA  0084               	movwf	4
   874     03BB  3041               	movlw	low main@F869
   875     03BC  00F7               	movwf	??_main
   876     03BD  0804               	movf	4,w
   877     03BE  00F8               	movwf	??_main+1
   878     03BF  3009               	movlw	9
   879     03C0  00F9               	movwf	??_main+2
   880     03C1                     u920:
   881     03C1  0877               	movf	??_main,w
   882     03C2  0084               	movwf	4
   883     03C3  1383               	bcf	3,7	;select IRP bank0
   884     03C4  0800               	movf	0,w
   885     03C5  00FA               	movwf	??_main+3
   886     03C6  0AF7               	incf	??_main,f
   887     03C7  0878               	movf	??_main+1,w
   888     03C8  0084               	movwf	4
   889     03C9  087A               	movf	??_main+3,w
   890     03CA  0080               	movwf	0
   891     03CB  0AF8               	incf	??_main+1,f
   892     03CC  0BF9               	decfsz	??_main+2,f
   893     03CD  2BC1               	goto	u920
   894     03CE                     l1424:
   895                           
   896                           ;main.c: 48:                  if(wait2++ == 4);main.c: 49:                 {
   897     03CE  01B2               	clrf	main@user_pass+9
   898     03CF                     l1426:
   899                           
   900                           ;main.c: 53:                 else;main.c: 55:               }
   901     03CF  3001               	movlw	1
   902     03D0  120A  118A  21E6  120A  118A  	fcall	_read_matrix_keypad
   903     03D5  1283               	bcf	3,5	;RP0=0, select bank0
   904     03D6  1303               	bcf	3,6	;RP1=0, select bank0
   905     03D7  00B6               	movwf	main@key
   906     03D8                     l1428:
   907                           
   908                           ;main.c: 56:               if(i == 2)
   909     03D8  0A36               	incf	main@key,w
   910     03D9  1903               	btfsc	3,2
   911     03DA  2BDC               	goto	u931
   912     03DB  2BDD               	goto	u930
   913     03DC                     u931:
   914     03DC  2BF7               	goto	l1438
   915     03DD                     u930:
   916     03DD                     l1430:
   917     03DD                     l1432:
   918                           
   919                           ;main.c: 59:                 if(wait2++ == 4)
   920     03DD  084A               	movf	main@i,w
   921     03DE  3E29               	addlw	(low (main@user_pass| 0))& (0+255)
   922     03DF  0084               	movwf	4
   923     03E0  0836               	movf	main@key,w
   924     03E1  3E30               	addlw	48
   925     03E2  1383               	bcf	3,7	;select IRP bank0
   926     03E3  0080               	movwf	0
   927     03E4                     l1434:
   928                           
   929                           ;main.c: 60:                 {
   930     03E4  3001               	movlw	1
   931     03E5  07CA               	addwf	main@i,f
   932     03E6  1803               	skipnc
   933     03E7  0ACB               	incf	main@i+1,f
   934     03E8  3000               	movlw	0
   935     03E9  07CB               	addwf	main@i+1,f
   936     03EA                     l1436:
   937                           
   938                           ;main.c: 61:                     wait2 = 0;
   939     03EA  3002               	movlw	2
   940     03EB  00F9               	movwf	??_main+2
   941     03EC  3045               	movlw	69
   942     03ED  00F8               	movwf	??_main+1
   943     03EE  30A9               	movlw	169
   944     03EF  00F7               	movwf	??_main
   945     03F0                     u1317:
   946     03F0  0BF7               	decfsz	??_main,f
   947     03F1  2BF0               	goto	u1317
   948     03F2  0BF8               	decfsz	??_main+1,f
   949     03F3  2BF0               	goto	u1317
   950     03F4  0BF9               	decfsz	??_main+2,f
   951     03F5  2BF0               	goto	u1317
   952     03F6  2BF7               	nop2
   953     03F7                     l1438:
   954                           
   955                           ;main.c: 63:                 }
   956     03F7  1283               	bcf	3,5	;RP0=0, select bank0
   957     03F8  1303               	bcf	3,6	;RP1=0, select bank0
   958     03F9  084B               	movf	main@i+1,w
   959     03FA  3A80               	xorlw	128
   960     03FB  00FF               	movwf	btemp+1
   961     03FC  3080               	movlw	128
   962     03FD  027F               	subwf	btemp+1,w
   963     03FE  1D03               	skipz
   964     03FF  2C02               	goto	u945
   965     0400  3008               	movlw	8
   966     0401  024A               	subwf	main@i,w
   967     0402                     u945:
   968     0402  1803               	skipnc
   969     0403  2C05               	goto	u941
   970     0404  2C06               	goto	u940
   971     0405                     u941:
   972     0405  2E2A               	goto	l1536
   973     0406                     u940:
   974     0406                     l1440:
   975                           
   976                           ;main.c: 64:                 else;main.c: 65:                   clcd_print(" ",(0xC0 + 6
      +                          ));
   977     0406  3080               	movlw	128
   978     0407  00F4               	movwf	clcd_print@addr
   979     0408  30A9               	movlw	(low ((STR_1-__stringbase)| (0+32768)))& (0+255)
   980     0409  120A  118A  2209  120A  118A  	fcall	_clcd_print
   981     040E                     l1442:
   982                           
   983                           ;main.c: 66:               }
   984     040E  1283               	bcf	3,5	;RP0=0, select bank0
   985     040F  1303               	bcf	3,6	;RP1=0, select bank0
   986     0410  084A               	movf	main@i,w
   987     0411  044B               	iorwf	main@i+1,w
   988     0412  1D03               	btfss	3,2
   989     0413  2C15               	goto	u951
   990     0414  2C16               	goto	u950
   991     0415                     u951:
   992     0415  2C48               	goto	l1452
   993     0416                     u950:
   994     0416                     l1444:
   995                           
   996                           ;main.c: 67:               if(i == 3);main.c: 68:               {
   997     0416  3001               	movlw	1
   998     0417  07BB               	addwf	main@wait2,f
   999     0418  3000               	movlw	0
  1000     0419  1803               	skipnc
  1001     041A  3001               	movlw	1
  1002     041B  07BC               	addwf	main@wait2+1,f
  1003     041C  3000               	movlw	0
  1004     041D  1803               	skipnc
  1005     041E  3001               	movlw	1
  1006     041F  07BD               	addwf	main@wait2+2,f
  1007     0420  3000               	movlw	0
  1008     0421  1803               	skipnc
  1009     0422  3001               	movlw	1
  1010     0423  07BE               	addwf	main@wait2+3,f
  1011     0424  3005               	movlw	5
  1012     0425  063B               	xorwf	main@wait2,w
  1013     0426  043C               	iorwf	main@wait2+1,w
  1014     0427  043D               	iorwf	main@wait2+2,w
  1015     0428  043E               	iorwf	main@wait2+3,w
  1016     0429  1D03               	btfss	3,2
  1017     042A  2C2C               	goto	u961
  1018     042B  2C2D               	goto	u960
  1019     042C                     u961:
  1020     042C  2C40               	goto	l1450
  1021     042D                     u960:
  1022     042D                     l1446:
  1023                           
  1024                           ;main.c: 69:               clcd_print("***",(0xC0 + 4));;main.c: 70:               if(wa
      +                          it2++ == 4)
  1025     042D  3000               	movlw	0
  1026     042E  1283               	bcf	3,5	;RP0=0, select bank0
  1027     042F  1303               	bcf	3,6	;RP1=0, select bank0
  1028     0430  00BE               	movwf	main@wait2+3
  1029     0431  3000               	movlw	0
  1030     0432  00BD               	movwf	main@wait2+2
  1031     0433  3000               	movlw	0
  1032     0434  00BC               	movwf	main@wait2+1
  1033     0435  3000               	movlw	0
  1034     0436  00BB               	movwf	main@wait2
  1035     0437                     l1448:
  1036                           
  1037                           ;main.c: 71:                 {
  1038     0437  30C4               	movlw	196
  1039     0438  00F4               	movwf	clcd_print@addr
  1040     0439  30CF               	movlw	(low ((STR_2-__stringbase)| (0+32768)))& (0+255)
  1041     043A  120A  118A  2209  120A  118A  	fcall	_clcd_print
  1042                           
  1043                           ;main.c: 72:                     wait2 = 0;
  1044     043F  2C48               	goto	l1452
  1045     0440                     l1450:
  1046                           
  1047                           ;main.c: 74:                 }
  1048     0440  30C4               	movlw	196
  1049     0441  00F4               	movwf	clcd_print@addr
  1050     0442  3010               	movlw	(low (((STR_37+15)-__stringbase)| (0+32768)))& (0+255)
  1051     0443  120A  118A  2209  120A  118A  	fcall	_clcd_print
  1052     0448                     l1452:
  1053                           
  1054                           ;main.c: 76:                   clcd_print(" ",(0xC0 + 7));
  1055     0448  1283               	bcf	3,5	;RP0=0, select bank0
  1056     0449  1303               	bcf	3,6	;RP1=0, select bank0
  1057     044A  034A               	decf	main@i,w
  1058     044B  044B               	iorwf	main@i+1,w
  1059     044C  1D03               	btfss	3,2
  1060     044D  2C4F               	goto	u971
  1061     044E  2C50               	goto	u970
  1062     044F                     u971:
  1063     044F  2C8C               	goto	l1464
  1064     0450                     u970:
  1065     0450                     l1454:
  1066                           
  1067                           ;main.c: 77:               };main.c: 78:               if(i == 4)
  1068     0450  30C4               	movlw	196
  1069     0451  00F4               	movwf	clcd_print@addr
  1070     0452  30CD               	movlw	(low (((STR_22+6)-__stringbase)| (0+32768)))& (0+255)
  1071     0453  120A  118A  2209  120A  118A  	fcall	_clcd_print
  1072     0458                     l1456:
  1073                           
  1074                           ;main.c: 79:               {
  1075     0458  3001               	movlw	1
  1076     0459  1283               	bcf	3,5	;RP0=0, select bank0
  1077     045A  1303               	bcf	3,6	;RP1=0, select bank0
  1078     045B  07BB               	addwf	main@wait2,f
  1079     045C  3000               	movlw	0
  1080     045D  1803               	skipnc
  1081     045E  3001               	movlw	1
  1082     045F  07BC               	addwf	main@wait2+1,f
  1083     0460  3000               	movlw	0
  1084     0461  1803               	skipnc
  1085     0462  3001               	movlw	1
  1086     0463  07BD               	addwf	main@wait2+2,f
  1087     0464  3000               	movlw	0
  1088     0465  1803               	skipnc
  1089     0466  3001               	movlw	1
  1090     0467  07BE               	addwf	main@wait2+3,f
  1091     0468  3005               	movlw	5
  1092     0469  063B               	xorwf	main@wait2,w
  1093     046A  043C               	iorwf	main@wait2+1,w
  1094     046B  043D               	iorwf	main@wait2+2,w
  1095     046C  043E               	iorwf	main@wait2+3,w
  1096     046D  1D03               	btfss	3,2
  1097     046E  2C70               	goto	u981
  1098     046F  2C71               	goto	u980
  1099     0470                     u981:
  1100     0470  2C84               	goto	l1462
  1101     0471                     u980:
  1102     0471                     l1458:
  1103                           
  1104                           ;main.c: 80:               clcd_print("****",(0xC0 + 4));;main.c: 81:               if(w
      +                          ait2++ == 4)
  1105     0471  3000               	movlw	0
  1106     0472  1283               	bcf	3,5	;RP0=0, select bank0
  1107     0473  1303               	bcf	3,6	;RP1=0, select bank0
  1108     0474  00BE               	movwf	main@wait2+3
  1109     0475  3000               	movlw	0
  1110     0476  00BD               	movwf	main@wait2+2
  1111     0477  3000               	movlw	0
  1112     0478  00BC               	movwf	main@wait2+1
  1113     0479  3000               	movlw	0
  1114     047A  00BB               	movwf	main@wait2
  1115     047B                     l1460:
  1116                           
  1117                           ;main.c: 82:                 {
  1118     047B  30C5               	movlw	197
  1119     047C  00F4               	movwf	clcd_print@addr
  1120     047D  3010               	movlw	(low (((STR_37+15)-__stringbase)| (0+32768)))& (0+255)
  1121     047E  120A  118A  2209  120A  118A  	fcall	_clcd_print
  1122                           
  1123                           ;main.c: 83:                     wait2 = 0;
  1124     0483  2C8C               	goto	l1464
  1125     0484                     l1462:
  1126                           
  1127                           ;main.c: 85:                 }
  1128     0484  30C5               	movlw	197
  1129     0485  00F4               	movwf	clcd_print@addr
  1130     0486  30CF               	movlw	(low ((STR_2-__stringbase)| (0+32768)))& (0+255)
  1131     0487  120A  118A  2209  120A  118A  	fcall	_clcd_print
  1132     048C                     l1464:
  1133                           
  1134                           ;main.c: 87:                   clcd_print(" ",(0xC0 + 8));
  1135     048C  3002               	movlw	2
  1136     048D  1283               	bcf	3,5	;RP0=0, select bank0
  1137     048E  1303               	bcf	3,6	;RP1=0, select bank0
  1138     048F  064A               	xorwf	main@i,w
  1139     0490  044B               	iorwf	main@i+1,w
  1140     0491  1D03               	btfss	3,2
  1141     0492  2C94               	goto	u991
  1142     0493  2C95               	goto	u990
  1143     0494                     u991:
  1144     0494  2CD1               	goto	l1476
  1145     0495                     u990:
  1146     0495                     l1466:
  1147                           
  1148                           ;main.c: 88:               };main.c: 89:               if(i == 5)
  1149     0495  30C4               	movlw	196
  1150     0496  00F4               	movwf	clcd_print@addr
  1151     0497  30CC               	movlw	(low (((STR_22+5)-__stringbase)| (0+32768)))& (0+255)
  1152     0498  120A  118A  2209  120A  118A  	fcall	_clcd_print
  1153     049D                     l1468:
  1154                           
  1155                           ;main.c: 90:               {
  1156     049D  3001               	movlw	1
  1157     049E  1283               	bcf	3,5	;RP0=0, select bank0
  1158     049F  1303               	bcf	3,6	;RP1=0, select bank0
  1159     04A0  07BB               	addwf	main@wait2,f
  1160     04A1  3000               	movlw	0
  1161     04A2  1803               	skipnc
  1162     04A3  3001               	movlw	1
  1163     04A4  07BC               	addwf	main@wait2+1,f
  1164     04A5  3000               	movlw	0
  1165     04A6  1803               	skipnc
  1166     04A7  3001               	movlw	1
  1167     04A8  07BD               	addwf	main@wait2+2,f
  1168     04A9  3000               	movlw	0
  1169     04AA  1803               	skipnc
  1170     04AB  3001               	movlw	1
  1171     04AC  07BE               	addwf	main@wait2+3,f
  1172     04AD  3005               	movlw	5
  1173     04AE  063B               	xorwf	main@wait2,w
  1174     04AF  043C               	iorwf	main@wait2+1,w
  1175     04B0  043D               	iorwf	main@wait2+2,w
  1176     04B1  043E               	iorwf	main@wait2+3,w
  1177     04B2  1D03               	btfss	3,2
  1178     04B3  2CB5               	goto	u1001
  1179     04B4  2CB6               	goto	u1000
  1180     04B5                     u1001:
  1181     04B5  2CC9               	goto	l1474
  1182     04B6                     u1000:
  1183     04B6                     l1470:
  1184                           
  1185                           ;main.c: 91:               clcd_print("*****",(0xC0 + 4));;main.c: 92:               if(
      +                          wait2++ == 4)
  1186     04B6  3000               	movlw	0
  1187     04B7  1283               	bcf	3,5	;RP0=0, select bank0
  1188     04B8  1303               	bcf	3,6	;RP1=0, select bank0
  1189     04B9  00BE               	movwf	main@wait2+3
  1190     04BA  3000               	movlw	0
  1191     04BB  00BD               	movwf	main@wait2+2
  1192     04BC  3000               	movlw	0
  1193     04BD  00BC               	movwf	main@wait2+1
  1194     04BE  3000               	movlw	0
  1195     04BF  00BB               	movwf	main@wait2
  1196     04C0                     l1472:
  1197                           
  1198                           ;main.c: 93:                 {
  1199     04C0  30C6               	movlw	198
  1200     04C1  00F4               	movwf	clcd_print@addr
  1201     04C2  30CF               	movlw	(low ((STR_2-__stringbase)| (0+32768)))& (0+255)
  1202     04C3  120A  118A  2209  120A  118A  	fcall	_clcd_print
  1203                           
  1204                           ;main.c: 94:                     wait2 = 0;
  1205     04C8  2CD1               	goto	l1476
  1206     04C9                     l1474:
  1207                           
  1208                           ;main.c: 96:                 }
  1209     04C9  30C6               	movlw	198
  1210     04CA  00F4               	movwf	clcd_print@addr
  1211     04CB  3010               	movlw	(low (((STR_37+15)-__stringbase)| (0+32768)))& (0+255)
  1212     04CC  120A  118A  2209  120A  118A  	fcall	_clcd_print
  1213     04D1                     l1476:
  1214                           
  1215                           ;main.c: 98:                   clcd_print(" ",(0xC0 + 9));
  1216     04D1  3003               	movlw	3
  1217     04D2  1283               	bcf	3,5	;RP0=0, select bank0
  1218     04D3  1303               	bcf	3,6	;RP1=0, select bank0
  1219     04D4  064A               	xorwf	main@i,w
  1220     04D5  044B               	iorwf	main@i+1,w
  1221     04D6  1D03               	btfss	3,2
  1222     04D7  2CD9               	goto	u1011
  1223     04D8  2CDA               	goto	u1010
  1224     04D9                     u1011:
  1225     04D9  2D16               	goto	l1488
  1226     04DA                     u1010:
  1227     04DA                     l1478:
  1228                           
  1229                           ;main.c: 99:               };main.c: 100:               if(i == 6)
  1230     04DA  30C4               	movlw	196
  1231     04DB  00F4               	movwf	clcd_print@addr
  1232     04DC  30CB               	movlw	(low (((STR_22+4)-__stringbase)| (0+32768)))& (0+255)
  1233     04DD  120A  118A  2209  120A  118A  	fcall	_clcd_print
  1234     04E2                     l1480:
  1235                           
  1236                           ;main.c: 101:               {
  1237     04E2  3001               	movlw	1
  1238     04E3  1283               	bcf	3,5	;RP0=0, select bank0
  1239     04E4  1303               	bcf	3,6	;RP1=0, select bank0
  1240     04E5  07BB               	addwf	main@wait2,f
  1241     04E6  3000               	movlw	0
  1242     04E7  1803               	skipnc
  1243     04E8  3001               	movlw	1
  1244     04E9  07BC               	addwf	main@wait2+1,f
  1245     04EA  3000               	movlw	0
  1246     04EB  1803               	skipnc
  1247     04EC  3001               	movlw	1
  1248     04ED  07BD               	addwf	main@wait2+2,f
  1249     04EE  3000               	movlw	0
  1250     04EF  1803               	skipnc
  1251     04F0  3001               	movlw	1
  1252     04F1  07BE               	addwf	main@wait2+3,f
  1253     04F2  3005               	movlw	5
  1254     04F3  063B               	xorwf	main@wait2,w
  1255     04F4  043C               	iorwf	main@wait2+1,w
  1256     04F5  043D               	iorwf	main@wait2+2,w
  1257     04F6  043E               	iorwf	main@wait2+3,w
  1258     04F7  1D03               	btfss	3,2
  1259     04F8  2CFA               	goto	u1021
  1260     04F9  2CFB               	goto	u1020
  1261     04FA                     u1021:
  1262     04FA  2D0E               	goto	l1486
  1263     04FB                     u1020:
  1264     04FB                     l1482:
  1265                           
  1266                           ;main.c: 102:               clcd_print("******",(0xC0 + 4));;main.c: 103:               
      +                          if(wait2++ == 4)
  1267     04FB  3000               	movlw	0
  1268     04FC  1283               	bcf	3,5	;RP0=0, select bank0
  1269     04FD  1303               	bcf	3,6	;RP1=0, select bank0
  1270     04FE  00BE               	movwf	main@wait2+3
  1271     04FF  3000               	movlw	0
  1272     0500  00BD               	movwf	main@wait2+2
  1273     0501  3000               	movlw	0
  1274     0502  00BC               	movwf	main@wait2+1
  1275     0503  3000               	movlw	0
  1276     0504  00BB               	movwf	main@wait2
  1277     0505                     l1484:
  1278                           
  1279                           ;main.c: 104:                 {
  1280     0505  30C7               	movlw	199
  1281     0506  00F4               	movwf	clcd_print@addr
  1282     0507  30CF               	movlw	(low ((STR_2-__stringbase)| (0+32768)))& (0+255)
  1283     0508  120A  118A  2209  120A  118A  	fcall	_clcd_print
  1284                           
  1285                           ;main.c: 105:                     wait2 = 0;
  1286     050D  2D16               	goto	l1488
  1287     050E                     l1486:
  1288                           
  1289                           ;main.c: 107:                 }
  1290     050E  30C7               	movlw	199
  1291     050F  00F4               	movwf	clcd_print@addr
  1292     0510  3010               	movlw	(low (((STR_37+15)-__stringbase)| (0+32768)))& (0+255)
  1293     0511  120A  118A  2209  120A  118A  	fcall	_clcd_print
  1294     0516                     l1488:
  1295                           
  1296                           ;main.c: 109:                   clcd_print(" ",(0xC0 + 10));
  1297     0516  3004               	movlw	4
  1298     0517  1283               	bcf	3,5	;RP0=0, select bank0
  1299     0518  1303               	bcf	3,6	;RP1=0, select bank0
  1300     0519  064A               	xorwf	main@i,w
  1301     051A  044B               	iorwf	main@i+1,w
  1302     051B  1D03               	btfss	3,2
  1303     051C  2D1E               	goto	u1031
  1304     051D  2D1F               	goto	u1030
  1305     051E                     u1031:
  1306     051E  2D5B               	goto	l1500
  1307     051F                     u1030:
  1308     051F                     l1490:
  1309                           
  1310                           ;main.c: 110:               };main.c: 111:               if(i == 7)
  1311     051F  30C4               	movlw	196
  1312     0520  00F4               	movwf	clcd_print@addr
  1313     0521  30CA               	movlw	(low (((STR_22+3)-__stringbase)| (0+32768)))& (0+255)
  1314     0522  120A  118A  2209  120A  118A  	fcall	_clcd_print
  1315     0527                     l1492:
  1316                           
  1317                           ;main.c: 112:               {
  1318     0527  3001               	movlw	1
  1319     0528  1283               	bcf	3,5	;RP0=0, select bank0
  1320     0529  1303               	bcf	3,6	;RP1=0, select bank0
  1321     052A  07BB               	addwf	main@wait2,f
  1322     052B  3000               	movlw	0
  1323     052C  1803               	skipnc
  1324     052D  3001               	movlw	1
  1325     052E  07BC               	addwf	main@wait2+1,f
  1326     052F  3000               	movlw	0
  1327     0530  1803               	skipnc
  1328     0531  3001               	movlw	1
  1329     0532  07BD               	addwf	main@wait2+2,f
  1330     0533  3000               	movlw	0
  1331     0534  1803               	skipnc
  1332     0535  3001               	movlw	1
  1333     0536  07BE               	addwf	main@wait2+3,f
  1334     0537  3005               	movlw	5
  1335     0538  063B               	xorwf	main@wait2,w
  1336     0539  043C               	iorwf	main@wait2+1,w
  1337     053A  043D               	iorwf	main@wait2+2,w
  1338     053B  043E               	iorwf	main@wait2+3,w
  1339     053C  1D03               	btfss	3,2
  1340     053D  2D3F               	goto	u1041
  1341     053E  2D40               	goto	u1040
  1342     053F                     u1041:
  1343     053F  2D53               	goto	l1498
  1344     0540                     u1040:
  1345     0540                     l1494:
  1346                           
  1347                           ;main.c: 113:               clcd_print("*******",(0xC0 + 4));;main.c: 114:              
      +                           if(wait2++ == 4)
  1348     0540  3000               	movlw	0
  1349     0541  1283               	bcf	3,5	;RP0=0, select bank0
  1350     0542  1303               	bcf	3,6	;RP1=0, select bank0
  1351     0543  00BE               	movwf	main@wait2+3
  1352     0544  3000               	movlw	0
  1353     0545  00BD               	movwf	main@wait2+2
  1354     0546  3000               	movlw	0
  1355     0547  00BC               	movwf	main@wait2+1
  1356     0548  3000               	movlw	0
  1357     0549  00BB               	movwf	main@wait2
  1358     054A                     l1496:
  1359                           
  1360                           ;main.c: 115:                 {
  1361     054A  30C8               	movlw	200
  1362     054B  00F4               	movwf	clcd_print@addr
  1363     054C  30CF               	movlw	(low ((STR_2-__stringbase)| (0+32768)))& (0+255)
  1364     054D  120A  118A  2209  120A  118A  	fcall	_clcd_print
  1365                           
  1366                           ;main.c: 116:                     wait2 = 0;
  1367     0552  2D5B               	goto	l1500
  1368     0553                     l1498:
  1369                           
  1370                           ;main.c: 118:                 }
  1371     0553  30C8               	movlw	200
  1372     0554  00F4               	movwf	clcd_print@addr
  1373     0555  3010               	movlw	(low (((STR_37+15)-__stringbase)| (0+32768)))& (0+255)
  1374     0556  120A  118A  2209  120A  118A  	fcall	_clcd_print
  1375     055B                     l1500:
  1376                           
  1377                           ;main.c: 120:                   clcd_print(" ",(0xC0 + 11));
  1378     055B  3005               	movlw	5
  1379     055C  1283               	bcf	3,5	;RP0=0, select bank0
  1380     055D  1303               	bcf	3,6	;RP1=0, select bank0
  1381     055E  064A               	xorwf	main@i,w
  1382     055F  044B               	iorwf	main@i+1,w
  1383     0560  1D03               	btfss	3,2
  1384     0561  2D63               	goto	u1051
  1385     0562  2D64               	goto	u1050
  1386     0563                     u1051:
  1387     0563  2DA0               	goto	l1512
  1388     0564                     u1050:
  1389     0564                     l1502:
  1390                           
  1391                           ;main.c: 121:               };main.c: 122:           }
  1392     0564  30C4               	movlw	196
  1393     0565  00F4               	movwf	clcd_print@addr
  1394     0566  30C9               	movlw	(low (((STR_22+2)-__stringbase)| (0+32768)))& (0+255)
  1395     0567  120A  118A  2209  120A  118A  	fcall	_clcd_print
  1396     056C                     l1504:
  1397                           
  1398                           ;main.c: 123:            if(i == 8)
  1399     056C  3001               	movlw	1
  1400     056D  1283               	bcf	3,5	;RP0=0, select bank0
  1401     056E  1303               	bcf	3,6	;RP1=0, select bank0
  1402     056F  07BB               	addwf	main@wait2,f
  1403     0570  3000               	movlw	0
  1404     0571  1803               	skipnc
  1405     0572  3001               	movlw	1
  1406     0573  07BC               	addwf	main@wait2+1,f
  1407     0574  3000               	movlw	0
  1408     0575  1803               	skipnc
  1409     0576  3001               	movlw	1
  1410     0577  07BD               	addwf	main@wait2+2,f
  1411     0578  3000               	movlw	0
  1412     0579  1803               	skipnc
  1413     057A  3001               	movlw	1
  1414     057B  07BE               	addwf	main@wait2+3,f
  1415     057C  3005               	movlw	5
  1416     057D  063B               	xorwf	main@wait2,w
  1417     057E  043C               	iorwf	main@wait2+1,w
  1418     057F  043D               	iorwf	main@wait2+2,w
  1419     0580  043E               	iorwf	main@wait2+3,w
  1420     0581  1D03               	btfss	3,2
  1421     0582  2D84               	goto	u1061
  1422     0583  2D85               	goto	u1060
  1423     0584                     u1061:
  1424     0584  2D98               	goto	l1510
  1425     0585                     u1060:
  1426     0585                     l1506:
  1427                           
  1428                           ;main.c: 124:            {;main.c: 125:                if(strcmp(message,user_pass) == 0
      +                          )
  1429     0585  3000               	movlw	0
  1430     0586  1283               	bcf	3,5	;RP0=0, select bank0
  1431     0587  1303               	bcf	3,6	;RP1=0, select bank0
  1432     0588  00BE               	movwf	main@wait2+3
  1433     0589  3000               	movlw	0
  1434     058A  00BD               	movwf	main@wait2+2
  1435     058B  3000               	movlw	0
  1436     058C  00BC               	movwf	main@wait2+1
  1437     058D  3000               	movlw	0
  1438     058E  00BB               	movwf	main@wait2
  1439     058F                     l1508:
  1440                           
  1441                           ;main.c: 126:                 {
  1442     058F  30C9               	movlw	201
  1443     0590  00F4               	movwf	clcd_print@addr
  1444     0591  30CF               	movlw	(low ((STR_2-__stringbase)| (0+32768)))& (0+255)
  1445     0592  120A  118A  2209  120A  118A  	fcall	_clcd_print
  1446                           
  1447                           ;main.c: 127:                   clcd_print("Yes, Password is",(0x80 + 0));
  1448     0597  2DA0               	goto	l1512
  1449     0598                     l1510:
  1450                           
  1451                           ;main.c: 129:                   RB7;
  1452     0598  30C9               	movlw	201
  1453     0599  00F4               	movwf	clcd_print@addr
  1454     059A  3010               	movlw	(low (((STR_37+15)-__stringbase)| (0+32768)))& (0+255)
  1455     059B  120A  118A  2209  120A  118A  	fcall	_clcd_print
  1456     05A0                     l1512:
  1457                           
  1458                           ;main.c: 131:                else
  1459     05A0  3006               	movlw	6
  1460     05A1  1283               	bcf	3,5	;RP0=0, select bank0
  1461     05A2  1303               	bcf	3,6	;RP1=0, select bank0
  1462     05A3  064A               	xorwf	main@i,w
  1463     05A4  044B               	iorwf	main@i+1,w
  1464     05A5  1D03               	btfss	3,2
  1465     05A6  2DA8               	goto	u1071
  1466     05A7  2DA9               	goto	u1070
  1467     05A8                     u1071:
  1468     05A8  2DE5               	goto	l1524
  1469     05A9                     u1070:
  1470     05A9                     l1514:
  1471                           
  1472                           ;main.c: 132:                 {;main.c: 133:                    if(attempt > 0)
  1473     05A9  30C4               	movlw	196
  1474     05AA  00F4               	movwf	clcd_print@addr
  1475     05AB  30C8               	movlw	(low (((STR_22+1)-__stringbase)| (0+32768)))& (0+255)
  1476     05AC  120A  118A  2209  120A  118A  	fcall	_clcd_print
  1477     05B1                     l1516:
  1478                           
  1479                           ;main.c: 134:                    {
  1480     05B1  3001               	movlw	1
  1481     05B2  1283               	bcf	3,5	;RP0=0, select bank0
  1482     05B3  1303               	bcf	3,6	;RP1=0, select bank0
  1483     05B4  07BB               	addwf	main@wait2,f
  1484     05B5  3000               	movlw	0
  1485     05B6  1803               	skipnc
  1486     05B7  3001               	movlw	1
  1487     05B8  07BC               	addwf	main@wait2+1,f
  1488     05B9  3000               	movlw	0
  1489     05BA  1803               	skipnc
  1490     05BB  3001               	movlw	1
  1491     05BC  07BD               	addwf	main@wait2+2,f
  1492     05BD  3000               	movlw	0
  1493     05BE  1803               	skipnc
  1494     05BF  3001               	movlw	1
  1495     05C0  07BE               	addwf	main@wait2+3,f
  1496     05C1  3005               	movlw	5
  1497     05C2  063B               	xorwf	main@wait2,w
  1498     05C3  043C               	iorwf	main@wait2+1,w
  1499     05C4  043D               	iorwf	main@wait2+2,w
  1500     05C5  043E               	iorwf	main@wait2+3,w
  1501     05C6  1D03               	btfss	3,2
  1502     05C7  2DC9               	goto	u1081
  1503     05C8  2DCA               	goto	u1080
  1504     05C9                     u1081:
  1505     05C9  2DDD               	goto	l1522
  1506     05CA                     u1080:
  1507     05CA                     l1518:
  1508                           
  1509                           ;main.c: 135:                        if(attempt == 5);main.c: 136:                      
      +                            {
  1510     05CA  3000               	movlw	0
  1511     05CB  1283               	bcf	3,5	;RP0=0, select bank0
  1512     05CC  1303               	bcf	3,6	;RP1=0, select bank0
  1513     05CD  00BE               	movwf	main@wait2+3
  1514     05CE  3000               	movlw	0
  1515     05CF  00BD               	movwf	main@wait2+2
  1516     05D0  3000               	movlw	0
  1517     05D1  00BC               	movwf	main@wait2+1
  1518     05D2  3000               	movlw	0
  1519     05D3  00BB               	movwf	main@wait2
  1520     05D4                     l1520:
  1521                           
  1522                           ;main.c: 137:                        clcd_print("Incorrect pass 5",(0x80 + 0));
  1523     05D4  30CA               	movlw	202
  1524     05D5  00F4               	movwf	clcd_print@addr
  1525     05D6  30CF               	movlw	(low ((STR_2-__stringbase)| (0+32768)))& (0+255)
  1526     05D7  120A  118A  2209  120A  118A  	fcall	_clcd_print
  1527                           
  1528                           ;main.c: 138:                        clcd_print(" Attempt Left  ",(0xC0 + 0));
  1529     05DC  2DE5               	goto	l1524
  1530     05DD                     l1522:
  1531                           
  1532                           ;main.c: 140:                        if(attempt == 4)
  1533     05DD  30CA               	movlw	202
  1534     05DE  00F4               	movwf	clcd_print@addr
  1535     05DF  3010               	movlw	(low (((STR_37+15)-__stringbase)| (0+32768)))& (0+255)
  1536     05E0  120A  118A  2209  120A  118A  	fcall	_clcd_print
  1537     05E5                     l1524:
  1538                           
  1539                           ;main.c: 142:                        clcd_print("Incorrect pass 4",(0x80 + 0));
  1540     05E5  3007               	movlw	7
  1541     05E6  1283               	bcf	3,5	;RP0=0, select bank0
  1542     05E7  1303               	bcf	3,6	;RP1=0, select bank0
  1543     05E8  064A               	xorwf	main@i,w
  1544     05E9  044B               	iorwf	main@i+1,w
  1545     05EA  1D03               	btfss	3,2
  1546     05EB  2DED               	goto	u1091
  1547     05EC  2DEE               	goto	u1090
  1548     05ED                     u1091:
  1549     05ED  2E2A               	goto	l1536
  1550     05EE                     u1090:
  1551     05EE                     l1526:
  1552                           
  1553                           ;main.c: 143:                        clcd_print(" Attempt Left  ",(0xC0 + 0));;main.c: 1
      +                          44:                        }
  1554     05EE  30C4               	movlw	196
  1555     05EF  00F4               	movwf	clcd_print@addr
  1556     05F0  30C7               	movlw	(low ((STR_22-__stringbase)| (0+32768)))& (0+255)
  1557     05F1  120A  118A  2209  120A  118A  	fcall	_clcd_print
  1558     05F6                     l1528:
  1559                           
  1560                           ;main.c: 145:                        if(attempt == 3)
  1561     05F6  3001               	movlw	1
  1562     05F7  1283               	bcf	3,5	;RP0=0, select bank0
  1563     05F8  1303               	bcf	3,6	;RP1=0, select bank0
  1564     05F9  07BB               	addwf	main@wait2,f
  1565     05FA  3000               	movlw	0
  1566     05FB  1803               	skipnc
  1567     05FC  3001               	movlw	1
  1568     05FD  07BC               	addwf	main@wait2+1,f
  1569     05FE  3000               	movlw	0
  1570     05FF  1803               	skipnc
  1571     0600  3001               	movlw	1
  1572     0601  07BD               	addwf	main@wait2+2,f
  1573     0602  3000               	movlw	0
  1574     0603  1803               	skipnc
  1575     0604  3001               	movlw	1
  1576     0605  07BE               	addwf	main@wait2+3,f
  1577     0606  3005               	movlw	5
  1578     0607  063B               	xorwf	main@wait2,w
  1579     0608  043C               	iorwf	main@wait2+1,w
  1580     0609  043D               	iorwf	main@wait2+2,w
  1581     060A  043E               	iorwf	main@wait2+3,w
  1582     060B  1D03               	btfss	3,2
  1583     060C  2E0E               	goto	u1101
  1584     060D  2E0F               	goto	u1100
  1585     060E                     u1101:
  1586     060E  2E22               	goto	l1534
  1587     060F                     u1100:
  1588     060F                     l1530:
  1589                           
  1590                           ;main.c: 146:                        {;main.c: 147:                        clcd_print("I
      +                          ncorrect pass 3",(0x80 + 0));
  1591     060F  3000               	movlw	0
  1592     0610  1283               	bcf	3,5	;RP0=0, select bank0
  1593     0611  1303               	bcf	3,6	;RP1=0, select bank0
  1594     0612  00BE               	movwf	main@wait2+3
  1595     0613  3000               	movlw	0
  1596     0614  00BD               	movwf	main@wait2+2
  1597     0615  3000               	movlw	0
  1598     0616  00BC               	movwf	main@wait2+1
  1599     0617  3000               	movlw	0
  1600     0618  00BB               	movwf	main@wait2
  1601     0619                     l1532:
  1602                           
  1603                           ;main.c: 148:                        clcd_print(" Attempt Left  ",(0xC0 + 0));
  1604     0619  30CB               	movlw	203
  1605     061A  00F4               	movwf	clcd_print@addr
  1606     061B  30CF               	movlw	(low ((STR_2-__stringbase)| (0+32768)))& (0+255)
  1607     061C  120A  118A  2209  120A  118A  	fcall	_clcd_print
  1608                           
  1609                           ;main.c: 149:                        }
  1610     0621  2E2A               	goto	l1536
  1611     0622                     l1534:
  1612                           
  1613                           ;main.c: 151:                        {
  1614     0622  30CB               	movlw	203
  1615     0623  00F4               	movwf	clcd_print@addr
  1616     0624  3010               	movlw	(low (((STR_37+15)-__stringbase)| (0+32768)))& (0+255)
  1617     0625  120A  118A  2209  120A  118A  	fcall	_clcd_print
  1618     062A                     l1536:
  1619                           
  1620                           ;main.c: 154:                        }
  1621     062A  3008               	movlw	8
  1622     062B  1283               	bcf	3,5	;RP0=0, select bank0
  1623     062C  1303               	bcf	3,6	;RP1=0, select bank0
  1624     062D  064A               	xorwf	main@i,w
  1625     062E  044B               	iorwf	main@i+1,w
  1626     062F  1D03               	btfss	3,2
  1627     0630  2E32               	goto	u1111
  1628     0631  2E33               	goto	u1110
  1629     0632                     u1111:
  1630     0632  2F33               	goto	l1582
  1631     0633                     u1110:
  1632     0633                     l1538:
  1633                           
  1634                           ;main.c: 155:                        if(attempt == 1);main.c: 156:                      
      +                            {
  1635     0633  3029               	movlw	(low (main@user_pass| 0))& (0+255)
  1636     0634  00F0               	movwf	strcmp@s2
  1637     0635  3020               	movlw	(low (main@message| 0))& (0+255)
  1638     0636  120A  118A  2231  120A  118A  	fcall	_strcmp
  1639     063B  0870               	movf	?_strcmp,w
  1640     063C  0471               	iorwf	?_strcmp+1,w
  1641     063D  1D03               	btfss	3,2
  1642     063E  2E40               	goto	u1121
  1643     063F  2E41               	goto	u1120
  1644     0640                     u1121:
  1645     0640  2E52               	goto	l1544
  1646     0641                     u1120:
  1647     0641                     l1540:
  1648                           
  1649                           ;main.c: 157:                        clcd_print("Incorrect pass 1",(0x80 + 0));;main.c: 
      +                          158:                        clcd_print(" Attempt Left  ",(0xC0 + 0));
  1650     0641  3080               	movlw	128
  1651     0642  00F4               	movwf	clcd_print@addr
  1652     0643  3078               	movlw	(low ((STR_25-__stringbase)| (0+32768)))& (0+255)
  1653     0644  120A  118A  2209  120A  118A  	fcall	_clcd_print
  1654                           
  1655                           ;main.c: 159:                        }
  1656     0649  30C0               	movlw	192
  1657     064A  00F4               	movwf	clcd_print@addr
  1658     064B  3067               	movlw	(low ((STR_26-__stringbase)| (0+32768)))& (0+255)
  1659     064C  120A  118A  2209  120A  118A  	fcall	_clcd_print
  1660     0651                     l1542:
  1661                           
  1662                           ;main.c: 160:                        for(long int j = 250000;j--; );
  1663                           ;main.c: 161:                        attempt--;
  1664     0651  2F33               	goto	l1582
  1665     0652                     l1544:
  1666                           
  1667                           ;main.c: 163:                        clcd_print("                ",(0x80 + 0));;main.c: 
      +                          164:                        clcd_print("                ",(0xC0 + 0));
  1668     0652  1283               	bcf	3,5	;RP0=0, select bank0
  1669     0653  1303               	bcf	3,6	;RP1=0, select bank0
  1670     0654  0840               	movf	main@attempt+1,w
  1671     0655  3A80               	xorlw	128
  1672     0656  00FF               	movwf	btemp+1
  1673     0657  3080               	movlw	128
  1674     0658  027F               	subwf	btemp+1,w
  1675     0659  1D03               	skipz
  1676     065A  2E5D               	goto	u1135
  1677     065B  3001               	movlw	1
  1678     065C  023F               	subwf	main@attempt,w
  1679     065D                     u1135:
  1680     065D  1C03               	skipc
  1681     065E  2E60               	goto	u1131
  1682     065F  2E61               	goto	u1130
  1683     0660                     u1131:
  1684     0660  2F1D               	goto	l1578
  1685     0661                     u1130:
  1686     0661                     l1546:
  1687                           
  1688                           ;main.c: 165:                    };main.c: 166:                    else
  1689     0661  3005               	movlw	5
  1690     0662  1283               	bcf	3,5	;RP0=0, select bank0
  1691     0663  1303               	bcf	3,6	;RP1=0, select bank0
  1692     0664  063F               	xorwf	main@attempt,w
  1693     0665  0440               	iorwf	main@attempt+1,w
  1694     0666  1D03               	btfss	3,2
  1695     0667  2E69               	goto	u1141
  1696     0668  2E6A               	goto	u1140
  1697     0669                     u1141:
  1698     0669  2E7A               	goto	l1550
  1699     066A                     u1140:
  1700     066A                     l1548:
  1701                           
  1702                           ;main.c: 167:                    {;main.c: 168:                      clcd_print("Attmpt 
      +                          Maximum",(0x80 + 0));
  1703     066A  3080               	movlw	128
  1704     066B  00F4               	movwf	clcd_print@addr
  1705     066C  3056               	movlw	(low ((STR_27-__stringbase)| (0+32768)))& (0+255)
  1706     066D  120A  118A  2209  120A  118A  	fcall	_clcd_print
  1707                           
  1708                           ;main.c: 169:                      clcd_print("Reset the Board",(0xC0 + 0));
  1709     0672  30C0               	movlw	192
  1710     0673  00F4               	movwf	clcd_print@addr
  1711     0674  3089               	movlw	(low ((STR_28-__stringbase)| (0+32768)))& (0+255)
  1712     0675  120A  118A  2209  120A  118A  	fcall	_clcd_print
  1713     067A                     l1550:
  1714                           
  1715                           ;main.c: 171:                    }
  1716     067A  3004               	movlw	4
  1717     067B  1283               	bcf	3,5	;RP0=0, select bank0
  1718     067C  1303               	bcf	3,6	;RP1=0, select bank0
  1719     067D  063F               	xorwf	main@attempt,w
  1720     067E  0440               	iorwf	main@attempt+1,w
  1721     067F  1D03               	btfss	3,2
  1722     0680  2E82               	goto	u1151
  1723     0681  2E83               	goto	u1150
  1724     0682                     u1151:
  1725     0682  2E93               	goto	l1554
  1726     0683                     u1150:
  1727     0683                     l1552:
  1728                           
  1729                           ;main.c: 172:                 };main.c: 173:             }
  1730     0683  3080               	movlw	128
  1731     0684  00F4               	movwf	clcd_print@addr
  1732     0685  3045               	movlw	(low ((STR_29-__stringbase)| (0+32768)))& (0+255)
  1733     0686  120A  118A  2209  120A  118A  	fcall	_clcd_print
  1734                           
  1735                           ;main.c: 174:         if(attempt == 5)
  1736     068B  30C0               	movlw	192
  1737     068C  00F4               	movwf	clcd_print@addr
  1738     068D  3089               	movlw	(low ((STR_28-__stringbase)| (0+32768)))& (0+255)
  1739     068E  120A  118A  2209  120A  118A  	fcall	_clcd_print
  1740     0693                     l1554:
  1741                           
  1742                           ;main.c: 176:             if(wait++ == 10)
  1743     0693  3003               	movlw	3
  1744     0694  1283               	bcf	3,5	;RP0=0, select bank0
  1745     0695  1303               	bcf	3,6	;RP1=0, select bank0
  1746     0696  063F               	xorwf	main@attempt,w
  1747     0697  0440               	iorwf	main@attempt+1,w
  1748     0698  1D03               	btfss	3,2
  1749     0699  2E9B               	goto	u1161
  1750     069A  2E9C               	goto	u1160
  1751     069B                     u1161:
  1752     069B  2EAC               	goto	l1558
  1753     069C                     u1160:
  1754     069C                     l1556:
  1755                           
  1756                           ;main.c: 177:             {;main.c: 178:               wait = 0;
  1757     069C  3080               	movlw	128
  1758     069D  00F4               	movwf	clcd_print@addr
  1759     069E  3034               	movlw	(low ((STR_31-__stringbase)| (0+32768)))& (0+255)
  1760     069F  120A  118A  2209  120A  118A  	fcall	_clcd_print
  1761                           
  1762                           ;main.c: 179:               RB7 = !RB7;
  1763     06A4  30C0               	movlw	192
  1764     06A5  00F4               	movwf	clcd_print@addr
  1765     06A6  3089               	movlw	(low ((STR_28-__stringbase)| (0+32768)))& (0+255)
  1766     06A7  120A  118A  2209  120A  118A  	fcall	_clcd_print
  1767     06AC                     l1558:
  1768                           
  1769                           ;main.c: 181:         }
  1770     06AC  3002               	movlw	2
  1771     06AD  1283               	bcf	3,5	;RP0=0, select bank0
  1772     06AE  1303               	bcf	3,6	;RP1=0, select bank0
  1773     06AF  063F               	xorwf	main@attempt,w
  1774     06B0  0440               	iorwf	main@attempt+1,w
  1775     06B1  1D03               	btfss	3,2
  1776     06B2  2EB4               	goto	u1171
  1777     06B3  2EB5               	goto	u1170
  1778     06B4                     u1171:
  1779     06B4  2EC5               	goto	l1562
  1780     06B5                     u1170:
  1781     06B5                     l1560:
  1782                           
  1783                           ;main.c: 182:         else if(attempt == 4);main.c: 183:         {
  1784     06B5  3080               	movlw	128
  1785     06B6  00F4               	movwf	clcd_print@addr
  1786     06B7  3023               	movlw	(low ((STR_33-__stringbase)| (0+32768)))& (0+255)
  1787     06B8  120A  118A  2209  120A  118A  	fcall	_clcd_print
  1788                           
  1789                           ;main.c: 184:            if(wait++ == 5)
  1790     06BD  30C0               	movlw	192
  1791     06BE  00F4               	movwf	clcd_print@addr
  1792     06BF  3089               	movlw	(low ((STR_28-__stringbase)| (0+32768)))& (0+255)
  1793     06C0  120A  118A  2209  120A  118A  	fcall	_clcd_print
  1794     06C5                     l1562:
  1795                           
  1796                           ;main.c: 186:               wait = 0;
  1797     06C5  1283               	bcf	3,5	;RP0=0, select bank0
  1798     06C6  1303               	bcf	3,6	;RP1=0, select bank0
  1799     06C7  033F               	decf	main@attempt,w
  1800     06C8  0440               	iorwf	main@attempt+1,w
  1801     06C9  1D03               	btfss	3,2
  1802     06CA  2ECC               	goto	u1181
  1803     06CB  2ECD               	goto	u1180
  1804     06CC                     u1181:
  1805     06CC  2EDD               	goto	l1566
  1806     06CD                     u1180:
  1807     06CD                     l1564:
  1808                           
  1809                           ;main.c: 187:               RB7 = !RB7;;main.c: 188:             }
  1810     06CD  3080               	movlw	128
  1811     06CE  00F4               	movwf	clcd_print@addr
  1812     06CF  3012               	movlw	(low ((STR_35-__stringbase)| (0+32768)))& (0+255)
  1813     06D0  120A  118A  2209  120A  118A  	fcall	_clcd_print
  1814                           
  1815                           ;main.c: 189:         }
  1816     06D5  30C0               	movlw	192
  1817     06D6  00F4               	movwf	clcd_print@addr
  1818     06D7  3089               	movlw	(low ((STR_28-__stringbase)| (0+32768)))& (0+255)
  1819     06D8  120A  118A  2209  120A  118A  	fcall	_clcd_print
  1820     06DD                     l1566:
  1821                           
  1822                           ;main.c: 191:         {
  1823     06DD  3000               	movlw	0
  1824     06DE  1283               	bcf	3,5	;RP0=0, select bank0
  1825     06DF  1303               	bcf	3,6	;RP1=0, select bank0
  1826     06E0  00B5               	movwf	main@j+3
  1827     06E1  3003               	movlw	3
  1828     06E2  00B4               	movwf	main@j+2
  1829     06E3  30D0               	movlw	208
  1830     06E4  00B3               	movwf	main@j+1
  1831     06E5  3090               	movlw	144
  1832     06E6  00B2               	movwf	main@j
  1833     06E7                     l1568:
  1834     06E7  30FF               	movlw	255
  1835     06E8  1283               	bcf	3,5	;RP0=0, select bank0
  1836     06E9  1303               	bcf	3,6	;RP1=0, select bank0
  1837     06EA  07B2               	addwf	main@j,f
  1838     06EB  30FF               	movlw	255
  1839     06EC  1C03               	skipc
  1840     06ED  07B3               	addwf	main@j+1,f
  1841     06EE  30FF               	movlw	255
  1842     06EF  1C03               	skipc
  1843     06F0  07B4               	addwf	main@j+2,f
  1844     06F1  30FF               	movlw	255
  1845     06F2  1C03               	skipc
  1846     06F3  07B5               	addwf	main@j+3,f
  1847     06F4  0A32               	incf	main@j,w
  1848     06F5  1D03               	skipz
  1849     06F6  2F01               	goto	u1191
  1850     06F7  0A33               	incf	main@j+1,w
  1851     06F8  1D03               	skipz
  1852     06F9  2F01               	goto	u1191
  1853     06FA  0A34               	incf	main@j+2,w
  1854     06FB  1D03               	skipz
  1855     06FC  2F01               	goto	u1191
  1856     06FD  0A35               	incf	main@j+3,w
  1857     06FE  1D03               	btfss	3,2
  1858     06FF  2F01               	goto	u1191
  1859     0700  2F02               	goto	u1190
  1860     0701                     u1191:
  1861     0701  2EE7               	goto	l1568
  1862     0702                     u1190:
  1863     0702                     l1570:
  1864                           
  1865                           ;main.c: 192:            if(wait++ == 4)
  1866     0702  30FF               	movlw	255
  1867     0703  1283               	bcf	3,5	;RP0=0, select bank0
  1868     0704  1303               	bcf	3,6	;RP1=0, select bank0
  1869     0705  07BF               	addwf	main@attempt,f
  1870     0706  1803               	skipnc
  1871     0707  0AC0               	incf	main@attempt+1,f
  1872     0708  30FF               	movlw	255
  1873     0709  07C0               	addwf	main@attempt+1,f
  1874     070A                     l1572:
  1875                           
  1876                           ;main.c: 193:             {
  1877     070A  01CA               	clrf	main@i
  1878     070B  01CB               	clrf	main@i+1
  1879     070C                     l1574:
  1880                           
  1881                           ;main.c: 194:               wait = 0;
  1882     070C  3080               	movlw	128
  1883     070D  00F4               	movwf	clcd_print@addr
  1884     070E  3001               	movlw	(low ((STR_37-__stringbase)| (0+32768)))& (0+255)
  1885     070F  120A  118A  2209  120A  118A  	fcall	_clcd_print
  1886     0714                     l1576:
  1887                           
  1888                           ;main.c: 195:               RB7 = !RB7;
  1889     0714  30C0               	movlw	192
  1890     0715  00F4               	movwf	clcd_print@addr
  1891     0716  3001               	movlw	(low ((STR_37-__stringbase)| (0+32768)))& (0+255)
  1892     0717  120A  118A  2209  120A  118A  	fcall	_clcd_print
  1893                           
  1894                           ;main.c: 196:             }
  1895     071C  2F33               	goto	l1582
  1896     071D                     l1578:
  1897                           
  1898                           ;main.c: 198:         else if(attempt == 2);main.c: 199:         {
  1899     071D  3080               	movlw	128
  1900     071E  00F4               	movwf	clcd_print@addr
  1901     071F  30B8               	movlw	(low ((STR_39-__stringbase)| (0+32768)))& (0+255)
  1902     0720  120A  118A  2209  120A  118A  	fcall	_clcd_print
  1903                           
  1904                           ;main.c: 200:             if(wait++ == 3)
  1905     0725  30C0               	movlw	192
  1906     0726  00F4               	movwf	clcd_print@addr
  1907     0727  3099               	movlw	(low ((STR_40-__stringbase)| (0+32768)))& (0+255)
  1908     0728  120A  118A  2209  120A  118A  	fcall	_clcd_print
  1909     072D                     l1580:
  1910                           
  1911                           ;main.c: 201:             {
  1912     072D  3008               	movlw	8
  1913     072E  1283               	bcf	3,5	;RP0=0, select bank0
  1914     072F  1303               	bcf	3,6	;RP1=0, select bank0
  1915     0730  00CA               	movwf	main@i
  1916     0731  3000               	movlw	0
  1917     0732  00CB               	movwf	main@i+1
  1918     0733                     l1582:
  1919                           
  1920                           ;main.c: 205:         }
  1921     0733  3005               	movlw	5
  1922     0734  1283               	bcf	3,5	;RP0=0, select bank0
  1923     0735  1303               	bcf	3,6	;RP1=0, select bank0
  1924     0736  063F               	xorwf	main@attempt,w
  1925     0737  0440               	iorwf	main@attempt+1,w
  1926     0738  1D03               	btfss	3,2
  1927     0739  2F3B               	goto	u1201
  1928     073A  2F3C               	goto	u1200
  1929     073B                     u1201:
  1930     073B  2F60               	goto	l1588
  1931     073C                     u1200:
  1932     073C                     l1584:
  1933                           
  1934                           ;main.c: 206:         else if(attempt == 1);main.c: 207:         {
  1935     073C  3001               	movlw	1
  1936     073D  07B7               	addwf	main@wait,f
  1937     073E  3000               	movlw	0
  1938     073F  1803               	skipnc
  1939     0740  3001               	movlw	1
  1940     0741  07B8               	addwf	main@wait+1,f
  1941     0742  3000               	movlw	0
  1942     0743  1803               	skipnc
  1943     0744  3001               	movlw	1
  1944     0745  07B9               	addwf	main@wait+2,f
  1945     0746  3000               	movlw	0
  1946     0747  1803               	skipnc
  1947     0748  3001               	movlw	1
  1948     0749  07BA               	addwf	main@wait+3,f
  1949     074A  300B               	movlw	11
  1950     074B  0637               	xorwf	main@wait,w
  1951     074C  0438               	iorwf	main@wait+1,w
  1952     074D  0439               	iorwf	main@wait+2,w
  1953     074E  043A               	iorwf	main@wait+3,w
  1954     074F  1D03               	btfss	3,2
  1955     0750  2F52               	goto	u1211
  1956     0751  2F53               	goto	u1210
  1957     0752                     u1211:
  1958     0752  2BCF               	goto	l1426
  1959     0753                     u1210:
  1960     0753                     l1586:
  1961                           
  1962                           ;main.c: 208:             if(wait++ == 2);main.c: 209:             {
  1963     0753  3000               	movlw	0
  1964     0754  1283               	bcf	3,5	;RP0=0, select bank0
  1965     0755  1303               	bcf	3,6	;RP1=0, select bank0
  1966     0756  00BA               	movwf	main@wait+3
  1967     0757  3000               	movlw	0
  1968     0758  00B9               	movwf	main@wait+2
  1969     0759  3000               	movlw	0
  1970     075A  00B8               	movwf	main@wait+1
  1971     075B  3000               	movlw	0
  1972     075C  00B7               	movwf	main@wait
  1973                           
  1974                           ;main.c: 210:               wait = 0;
  1975     075D  3080               	movlw	128
  1976     075E  0686               	xorwf	6,f
  1977     075F  2BCF               	goto	l1426
  1978     0760                     l1588:
  1979     0760  3004               	movlw	4
  1980     0761  063F               	xorwf	main@attempt,w
  1981     0762  0440               	iorwf	main@attempt+1,w
  1982     0763  1D03               	btfss	3,2
  1983     0764  2F66               	goto	u1221
  1984     0765  2F67               	goto	u1220
  1985     0766                     u1221:
  1986     0766  2F7F               	goto	l1594
  1987     0767                     u1220:
  1988     0767                     l1590:
  1989                           
  1990                           ;main.c: 214:         else if(attempt == 0);main.c: 215:         {
  1991     0767  3001               	movlw	1
  1992     0768  07B7               	addwf	main@wait,f
  1993     0769  3000               	movlw	0
  1994     076A  1803               	skipnc
  1995     076B  3001               	movlw	1
  1996     076C  07B8               	addwf	main@wait+1,f
  1997     076D  3000               	movlw	0
  1998     076E  1803               	skipnc
  1999     076F  3001               	movlw	1
  2000     0770  07B9               	addwf	main@wait+2,f
  2001     0771  3000               	movlw	0
  2002     0772  1803               	skipnc
  2003     0773  3001               	movlw	1
  2004     0774  07BA               	addwf	main@wait+3,f
  2005     0775  3006               	movlw	6
  2006     0776  0637               	xorwf	main@wait,w
  2007     0777  0438               	iorwf	main@wait+1,w
  2008     0778  0439               	iorwf	main@wait+2,w
  2009     0779  043A               	iorwf	main@wait+3,w
  2010     077A  1D03               	btfss	3,2
  2011     077B  2F7D               	goto	u1231
  2012     077C  2F7E               	goto	u1230
  2013     077D                     u1231:
  2014     077D  2BCF               	goto	l1426
  2015     077E                     u1230:
  2016     077E  2F53               	goto	l1586
  2017     077F                     l1594:
  2018     077F  3003               	movlw	3
  2019     0780  063F               	xorwf	main@attempt,w
  2020     0781  0440               	iorwf	main@attempt+1,w
  2021     0782  1D03               	btfss	3,2
  2022     0783  2F85               	goto	u1241
  2023     0784  2F86               	goto	u1240
  2024     0785                     u1241:
  2025     0785  2F9E               	goto	l1600
  2026     0786                     u1240:
  2027     0786                     l1596:
  2028     0786  3001               	movlw	1
  2029     0787  07B7               	addwf	main@wait,f
  2030     0788  3000               	movlw	0
  2031     0789  1803               	skipnc
  2032     078A  3001               	movlw	1
  2033     078B  07B8               	addwf	main@wait+1,f
  2034     078C  3000               	movlw	0
  2035     078D  1803               	skipnc
  2036     078E  3001               	movlw	1
  2037     078F  07B9               	addwf	main@wait+2,f
  2038     0790  3000               	movlw	0
  2039     0791  1803               	skipnc
  2040     0792  3001               	movlw	1
  2041     0793  07BA               	addwf	main@wait+3,f
  2042     0794  3005               	movlw	5
  2043     0795  0637               	xorwf	main@wait,w
  2044     0796  0438               	iorwf	main@wait+1,w
  2045     0797  0439               	iorwf	main@wait+2,w
  2046     0798  043A               	iorwf	main@wait+3,w
  2047     0799  1D03               	btfss	3,2
  2048     079A  2F9C               	goto	u1251
  2049     079B  2F9D               	goto	u1250
  2050     079C                     u1251:
  2051     079C  2BCF               	goto	l1426
  2052     079D                     u1250:
  2053     079D  2F53               	goto	l1586
  2054     079E                     l1600:
  2055     079E  3002               	movlw	2
  2056     079F  063F               	xorwf	main@attempt,w
  2057     07A0  0440               	iorwf	main@attempt+1,w
  2058     07A1  1D03               	btfss	3,2
  2059     07A2  2FA4               	goto	u1261
  2060     07A3  2FA5               	goto	u1260
  2061     07A4                     u1261:
  2062     07A4  2FBD               	goto	l1606
  2063     07A5                     u1260:
  2064     07A5                     l1602:
  2065     07A5  3001               	movlw	1
  2066     07A6  07B7               	addwf	main@wait,f
  2067     07A7  3000               	movlw	0
  2068     07A8  1803               	skipnc
  2069     07A9  3001               	movlw	1
  2070     07AA  07B8               	addwf	main@wait+1,f
  2071     07AB  3000               	movlw	0
  2072     07AC  1803               	skipnc
  2073     07AD  3001               	movlw	1
  2074     07AE  07B9               	addwf	main@wait+2,f
  2075     07AF  3000               	movlw	0
  2076     07B0  1803               	skipnc
  2077     07B1  3001               	movlw	1
  2078     07B2  07BA               	addwf	main@wait+3,f
  2079     07B3  3004               	movlw	4
  2080     07B4  0637               	xorwf	main@wait,w
  2081     07B5  0438               	iorwf	main@wait+1,w
  2082     07B6  0439               	iorwf	main@wait+2,w
  2083     07B7  043A               	iorwf	main@wait+3,w
  2084     07B8  1D03               	btfss	3,2
  2085     07B9  2FBB               	goto	u1271
  2086     07BA  2FBC               	goto	u1270
  2087     07BB                     u1271:
  2088     07BB  2BCF               	goto	l1426
  2089     07BC                     u1270:
  2090     07BC  2F53               	goto	l1586
  2091     07BD                     l1606:
  2092     07BD  033F               	decf	main@attempt,w
  2093     07BE  0440               	iorwf	main@attempt+1,w
  2094     07BF  1D03               	btfss	3,2
  2095     07C0  2FC2               	goto	u1281
  2096     07C1  2FC3               	goto	u1280
  2097     07C2                     u1281:
  2098     07C2  2FDB               	goto	l1612
  2099     07C3                     u1280:
  2100     07C3                     l1608:
  2101     07C3  3001               	movlw	1
  2102     07C4  07B7               	addwf	main@wait,f
  2103     07C5  3000               	movlw	0
  2104     07C6  1803               	skipnc
  2105     07C7  3001               	movlw	1
  2106     07C8  07B8               	addwf	main@wait+1,f
  2107     07C9  3000               	movlw	0
  2108     07CA  1803               	skipnc
  2109     07CB  3001               	movlw	1
  2110     07CC  07B9               	addwf	main@wait+2,f
  2111     07CD  3000               	movlw	0
  2112     07CE  1803               	skipnc
  2113     07CF  3001               	movlw	1
  2114     07D0  07BA               	addwf	main@wait+3,f
  2115     07D1  3003               	movlw	3
  2116     07D2  0637               	xorwf	main@wait,w
  2117     07D3  0438               	iorwf	main@wait+1,w
  2118     07D4  0439               	iorwf	main@wait+2,w
  2119     07D5  043A               	iorwf	main@wait+3,w
  2120     07D6  1D03               	btfss	3,2
  2121     07D7  2FD9               	goto	u1291
  2122     07D8  2FDA               	goto	u1290
  2123     07D9                     u1291:
  2124     07D9  2BCF               	goto	l1426
  2125     07DA                     u1290:
  2126     07DA  2F53               	goto	l1586
  2127     07DB                     l1612:
  2128     07DB  083F               	movf	main@attempt,w
  2129     07DC  0440               	iorwf	main@attempt+1,w
  2130     07DD  1D03               	btfss	3,2
  2131     07DE  2FE0               	goto	u1301
  2132     07DF  2FE1               	goto	u1300
  2133     07E0                     u1301:
  2134     07E0  2BCF               	goto	l1426
  2135     07E1                     u1300:
  2136     07E1                     l1614:
  2137     07E1  1786               	bsf	6,7	;volatile
  2138     07E2  2BCF               	goto	l1426
  2139     07E3  120A  118A  2800   	ljmp	start
  2140     07E6                     __end_of_main:
  2141                           
  2142                           	psect	text1
  2143     0231                     __ptext1:	
  2144 ;; *************** function _strcmp *****************
  2145 ;; Defined at:
  2146 ;;		line 33 in file "C:\Program Files\Microchip\xc8\v2.40\pic\sources\c90\common\strcmp.c"
  2147 ;; Parameters:    Size  Location     Type
  2148 ;;  s1              1    wreg     PTR const unsigned char 
  2149 ;;		 -> main@message(9), 
  2150 ;;  s2              1    0[COMMON] PTR const unsigned char 
  2151 ;;		 -> main@user_pass(9), 
  2152 ;; Auto vars:     Size  Location     Type
  2153 ;;  s1              1    5[COMMON] PTR const unsigned char 
  2154 ;;		 -> main@message(9), 
  2155 ;;  r               1    4[COMMON] char 
  2156 ;; Return value:  Size  Location     Type
  2157 ;;                  2    0[COMMON] int 
  2158 ;; Registers used:
  2159 ;;		wreg, fsr0l, fsr0h, status,2, status,0
  2160 ;; Tracked objects:
  2161 ;;		On entry : 0/0
  2162 ;;		On exit  : 0/0
  2163 ;;		Unchanged: 0/0
  2164 ;; Data sizes:     COMMON   BANK0   BANK1   BANK3   BANK2
  2165 ;;      Params:         2       0       0       0       0
  2166 ;;      Locals:         2       0       0       0       0
  2167 ;;      Temps:          2       0       0       0       0
  2168 ;;      Totals:         6       0       0       0       0
  2169 ;;Total ram usage:        6 bytes
  2170 ;; Hardware stack levels used: 1
  2171 ;; This function calls:
  2172 ;;		Nothing
  2173 ;; This function is called by:
  2174 ;;		_main
  2175 ;; This function uses a non-reentrant model
  2176 ;;
  2177                           
  2178     0231                     _strcmp:	
  2179                           ;psect for function _strcmp
  2180                           
  2181                           
  2182                           ;incstack = 0
  2183                           ; Regs used in _strcmp: [wreg-fsr0h+status,2+status,0]
  2184                           ;strcmp@s1 stored from wreg
  2185     0231  00F5               	movwf	strcmp@s1
  2186     0232                     l1398:
  2187     0232  2A3B               	goto	l1404
  2188     0233                     l1400:
  2189     0233  3001               	movlw	1
  2190     0234  00F2               	movwf	??_strcmp
  2191     0235  0872               	movf	??_strcmp,w
  2192     0236  07F5               	addwf	strcmp@s1,f
  2193     0237                     l1402:
  2194     0237  3001               	movlw	1
  2195     0238  00F2               	movwf	??_strcmp
  2196     0239  0872               	movf	??_strcmp,w
  2197     023A  07F0               	addwf	strcmp@s2,f
  2198     023B                     l1404:
  2199     023B  0870               	movf	strcmp@s2,w
  2200     023C  0084               	movwf	4
  2201     023D  1383               	bcf	3,7	;select IRP bank0
  2202     023E  0800               	movf	0,w
  2203     023F  00F2               	movwf	??_strcmp
  2204     0240  0875               	movf	strcmp@s1,w
  2205     0241  0084               	movwf	4
  2206     0242  0800               	movf	0,w
  2207     0243  00F3               	movwf	??_strcmp+1
  2208     0244  0872               	movf	??_strcmp,w
  2209     0245  0273               	subwf	??_strcmp+1,w
  2210     0246  00F4               	movwf	strcmp@r
  2211     0247  0874               	movf	strcmp@r,w
  2212     0248  1D03               	btfss	3,2
  2213     0249  2A4B               	goto	u901
  2214     024A  2A4C               	goto	u900
  2215     024B                     u901:
  2216     024B  2A53               	goto	l1408
  2217     024C                     u900:
  2218     024C                     l1406:
  2219     024C  0875               	movf	strcmp@s1,w
  2220     024D  0084               	movwf	4
  2221     024E  0800               	movf	0,w
  2222     024F  1D03               	btfss	3,2
  2223     0250  2A52               	goto	u911
  2224     0251  2A53               	goto	u910
  2225     0252                     u911:
  2226     0252  2A33               	goto	l1400
  2227     0253                     u910:
  2228     0253                     l1408:
  2229     0253  0874               	movf	strcmp@r,w
  2230     0254  00F0               	movwf	?_strcmp
  2231     0255  01F1               	clrf	?_strcmp+1
  2232     0256  1BF0               	btfsc	?_strcmp,7
  2233     0257  03F1               	decf	?_strcmp+1,f
  2234     0258                     l730:
  2235     0258  0008               	return
  2236     0259                     __end_of_strcmp:
  2237                           
  2238                           	psect	text2
  2239     01E6                     __ptext2:	
  2240 ;; *************** function _read_matrix_keypad *****************
  2241 ;; Defined at:
  2242 ;;		line 111 in file "matrix_keypad.c"
  2243 ;; Parameters:    Size  Location     Type
  2244 ;;  mode            1    wreg     unsigned char 
  2245 ;; Auto vars:     Size  Location     Type
  2246 ;;  mode            1    2[COMMON] unsigned char 
  2247 ;;  key             1    3[COMMON] unsigned char 
  2248 ;; Return value:  Size  Location     Type
  2249 ;;                  1    wreg      unsigned char 
  2250 ;; Registers used:
  2251 ;;		wreg, status,2, status,0, pclath, cstack
  2252 ;; Tracked objects:
  2253 ;;		On entry : 0/0
  2254 ;;		On exit  : 0/0
  2255 ;;		Unchanged: 0/0
  2256 ;; Data sizes:     COMMON   BANK0   BANK1   BANK3   BANK2
  2257 ;;      Params:         0       0       0       0       0
  2258 ;;      Locals:         2       0       0       0       0
  2259 ;;      Temps:          0       0       0       0       0
  2260 ;;      Totals:         2       0       0       0       0
  2261 ;;Total ram usage:        2 bytes
  2262 ;; Hardware stack levels used: 1
  2263 ;; Hardware stack levels required when called: 1
  2264 ;; This function calls:
  2265 ;;		_scan_keypad
  2266 ;; This function is called by:
  2267 ;;		_main
  2268 ;; This function uses a non-reentrant model
  2269 ;;
  2270                           
  2271     01E6                     _read_matrix_keypad:	
  2272                           ;psect for function _read_matrix_keypad
  2273                           
  2274                           
  2275                           ;incstack = 0
  2276                           ; Regs used in _read_matrix_keypad: [wreg+status,2+status,0+pclath+cstack]
  2277                           ;read_matrix_keypad@mode stored from wreg
  2278     01E6  00F2               	movwf	read_matrix_keypad@mode
  2279     01E7                     l1360:
  2280                           
  2281                           ;matrix_keypad.c: 111: unsigned char read_matrix_keypad(unsigned char mode);matrix_keypa
      +                          d.c: 112: {;matrix_keypad.c: 113:     static unsigned char once = 1;;matrix_keypad.c: 11
      +                          4:     unsigned char key;;matrix_keypad.c: 116:     key = scan_keypad();
  2282     01E7  120A  118A  22F2  120A  118A  	fcall	_scan_keypad
  2283     01EC  00F3               	movwf	read_matrix_keypad@key
  2284     01ED                     l1362:
  2285                           
  2286                           ;matrix_keypad.c: 118:     if (mode == 0)
  2287     01ED  0872               	movf	read_matrix_keypad@mode,w
  2288     01EE  1D03               	btfss	3,2
  2289     01EF  29F1               	goto	u861
  2290     01F0  29F2               	goto	u860
  2291     01F1                     u861:
  2292     01F1  29F4               	goto	l1370
  2293     01F2                     u860:
  2294     01F2                     l1364:
  2295                           
  2296                           ;matrix_keypad.c: 119:     {;matrix_keypad.c: 120:         return key;
  2297     01F2  0873               	movf	read_matrix_keypad@key,w
  2298     01F3  2A08               	goto	l96
  2299     01F4                     l1370:
  2300                           
  2301                           ;matrix_keypad.c: 123:     {;matrix_keypad.c: 124:         if ((key != 0xFF) && once)
  2302     01F4  0A73               	incf	read_matrix_keypad@key,w
  2303     01F5  1903               	btfsc	3,2
  2304     01F6  29F8               	goto	u871
  2305     01F7  29F9               	goto	u870
  2306     01F8                     u871:
  2307     01F8  2A00               	goto	l1382
  2308     01F9                     u870:
  2309     01F9                     l1372:
  2310     01F9  087B               	movf	read_matrix_keypad@once,w
  2311     01FA  1903               	btfsc	3,2
  2312     01FB  29FD               	goto	u881
  2313     01FC  29FE               	goto	u880
  2314     01FD                     u881:
  2315     01FD  2A00               	goto	l1382
  2316     01FE                     u880:
  2317     01FE                     l1374:
  2318                           
  2319                           ;matrix_keypad.c: 125:         {;matrix_keypad.c: 126:             once = 0;
  2320     01FE  01FB               	clrf	read_matrix_keypad@once
  2321     01FF  29F2               	goto	l1364
  2322     0200                     l1382:
  2323     0200  0A73               	incf	read_matrix_keypad@key,w
  2324     0201  1D03               	btfss	3,2
  2325     0202  2A04               	goto	u891
  2326     0203  2A05               	goto	u890
  2327     0204                     u891:
  2328     0204  2A07               	goto	l1386
  2329     0205                     u890:
  2330     0205                     l1384:
  2331                           
  2332                           ;matrix_keypad.c: 131:         {;matrix_keypad.c: 132:             once = 1;
  2333     0205  01FB               	clrf	read_matrix_keypad@once
  2334     0206  0AFB               	incf	read_matrix_keypad@once,f
  2335     0207                     l1386:
  2336                           
  2337                           ;matrix_keypad.c: 136:     return 0xFF;
  2338     0207  30FF               	movlw	255
  2339     0208                     l96:
  2340     0208  0008               	return
  2341     0209                     __end_of_read_matrix_keypad:
  2342                           
  2343                           	psect	text3
  2344     02F2                     __ptext3:	
  2345 ;; *************** function _scan_keypad *****************
  2346 ;; Defined at:
  2347 ;;		line 24 in file "matrix_keypad.c"
  2348 ;; Parameters:    Size  Location     Type
  2349 ;;		None
  2350 ;; Auto vars:     Size  Location     Type
  2351 ;;  i               2    0[COMMON] int 
  2352 ;; Return value:  Size  Location     Type
  2353 ;;                  1    wreg      unsigned char 
  2354 ;; Registers used:
  2355 ;;		wreg, status,2, status,0
  2356 ;; Tracked objects:
  2357 ;;		On entry : 0/0
  2358 ;;		On exit  : 0/0
  2359 ;;		Unchanged: 0/0
  2360 ;; Data sizes:     COMMON   BANK0   BANK1   BANK3   BANK2
  2361 ;;      Params:         0       0       0       0       0
  2362 ;;      Locals:         2       0       0       0       0
  2363 ;;      Temps:          0       0       0       0       0
  2364 ;;      Totals:         2       0       0       0       0
  2365 ;;Total ram usage:        2 bytes
  2366 ;; Hardware stack levels used: 1
  2367 ;; This function calls:
  2368 ;;		Nothing
  2369 ;; This function is called by:
  2370 ;;		_read_matrix_keypad
  2371 ;; This function uses a non-reentrant model
  2372 ;;
  2373                           
  2374     02F2                     _scan_keypad:	
  2375                           ;psect for function _scan_keypad
  2376                           
  2377     02F2                     l1266:	
  2378                           ;incstack = 0
  2379                           ; Regs used in _scan_keypad: [wreg+status,2+status,0]
  2380                           
  2381                           
  2382                           ;matrix_keypad.c: 26:     int i;;matrix_keypad.c: 28:     RD3 = 0;
  2383     02F2  1283               	bcf	3,5	;RP0=0, select bank0
  2384     02F3  1303               	bcf	3,6	;RP1=0, select bank0
  2385     02F4  1188               	bcf	8,3	;volatile
  2386                           
  2387                           ;matrix_keypad.c: 29:     RD2 = 1;
  2388     02F5  1508               	bsf	8,2	;volatile
  2389                           
  2390                           ;matrix_keypad.c: 30:     RD1 = 1;
  2391     02F6  1488               	bsf	8,1	;volatile
  2392                           
  2393                           ;matrix_keypad.c: 31:     RD0 = 1;
  2394     02F7  1408               	bsf	8,0	;volatile
  2395     02F8                     l1268:
  2396                           
  2397                           ;matrix_keypad.c: 33:     for (i = 100; i--; );
  2398     02F8  3064               	movlw	100
  2399     02F9  00F0               	movwf	scan_keypad@i
  2400     02FA  3000               	movlw	0
  2401     02FB  00F1               	movwf	scan_keypad@i+1
  2402     02FC                     l1270:
  2403     02FC  30FF               	movlw	255
  2404     02FD  07F0               	addwf	scan_keypad@i,f
  2405     02FE  1803               	skipnc
  2406     02FF  0AF1               	incf	scan_keypad@i+1,f
  2407     0300  30FF               	movlw	255
  2408     0301  07F1               	addwf	scan_keypad@i+1,f
  2409     0302  0A70               	incf	scan_keypad@i,w
  2410     0303  1D03               	skipz
  2411     0304  2B09               	goto	u691
  2412     0305  0A71               	incf	scan_keypad@i+1,w
  2413     0306  1D03               	btfss	3,2
  2414     0307  2B09               	goto	u691
  2415     0308  2B0A               	goto	u690
  2416     0309                     u691:
  2417     0309  2AFC               	goto	l1270
  2418     030A                     u690:
  2419     030A                     l60:
  2420                           
  2421                           ;matrix_keypad.c: 35:     if (RB0 == 0)
  2422     030A  1283               	bcf	3,5	;RP0=0, select bank0
  2423     030B  1303               	bcf	3,6	;RP1=0, select bank0
  2424     030C  1806               	btfsc	6,0	;volatile
  2425     030D  2B0F               	goto	u701
  2426     030E  2B10               	goto	u700
  2427     030F                     u701:
  2428     030F  2B12               	goto	l61
  2429     0310                     u700:
  2430     0310                     l1272:
  2431                           
  2432                           ;matrix_keypad.c: 36:     {;matrix_keypad.c: 37:         return 1;
  2433     0310  3001               	movlw	1
  2434     0311  2B9D               	goto	l62
  2435     0312                     l61:	
  2436                           ;matrix_keypad.c: 39:     else if (RB1 == 0)
  2437                           
  2438     0312  1886               	btfsc	6,1	;volatile
  2439     0313  2B15               	goto	u711
  2440     0314  2B16               	goto	u710
  2441     0315                     u711:
  2442     0315  2B18               	goto	l64
  2443     0316                     u710:
  2444     0316                     l1278:
  2445                           
  2446                           ;matrix_keypad.c: 40:     {;matrix_keypad.c: 41:         return 2;
  2447     0316  3002               	movlw	2
  2448     0317  2B9D               	goto	l62
  2449     0318                     l64:	
  2450                           ;matrix_keypad.c: 43:     else if (RB2 == 0)
  2451                           
  2452     0318  1906               	btfsc	6,2	;volatile
  2453     0319  2B1B               	goto	u721
  2454     031A  2B1C               	goto	u720
  2455     031B                     u721:
  2456     031B  2B1E               	goto	l63
  2457     031C                     u720:
  2458     031C                     l1284:
  2459                           
  2460                           ;matrix_keypad.c: 44:     {;matrix_keypad.c: 45:         return 3;
  2461     031C  3003               	movlw	3
  2462     031D  2B9D               	goto	l62
  2463     031E                     l63:
  2464                           
  2465                           ;matrix_keypad.c: 48:     RD3 = 1;
  2466     031E  1588               	bsf	8,3	;volatile
  2467                           
  2468                           ;matrix_keypad.c: 49:     RD2 = 0;
  2469     031F  1108               	bcf	8,2	;volatile
  2470                           
  2471                           ;matrix_keypad.c: 50:     RD1 = 1;
  2472     0320  1488               	bsf	8,1	;volatile
  2473                           
  2474                           ;matrix_keypad.c: 51:     RD0 = 1;
  2475     0321  1408               	bsf	8,0	;volatile
  2476     0322                     l1288:
  2477                           
  2478                           ;matrix_keypad.c: 53:     for (i = 100; i--; );
  2479     0322  3064               	movlw	100
  2480     0323  00F0               	movwf	scan_keypad@i
  2481     0324  3000               	movlw	0
  2482     0325  00F1               	movwf	scan_keypad@i+1
  2483     0326                     l1290:
  2484     0326  30FF               	movlw	255
  2485     0327  07F0               	addwf	scan_keypad@i,f
  2486     0328  1803               	skipnc
  2487     0329  0AF1               	incf	scan_keypad@i+1,f
  2488     032A  30FF               	movlw	255
  2489     032B  07F1               	addwf	scan_keypad@i+1,f
  2490     032C  0A70               	incf	scan_keypad@i,w
  2491     032D  1D03               	skipz
  2492     032E  2B33               	goto	u731
  2493     032F  0A71               	incf	scan_keypad@i+1,w
  2494     0330  1D03               	btfss	3,2
  2495     0331  2B33               	goto	u731
  2496     0332  2B34               	goto	u730
  2497     0333                     u731:
  2498     0333  2B26               	goto	l1290
  2499     0334                     u730:
  2500     0334                     l69:
  2501                           
  2502                           ;matrix_keypad.c: 55:     if (RB0 == 0)
  2503     0334  1283               	bcf	3,5	;RP0=0, select bank0
  2504     0335  1303               	bcf	3,6	;RP1=0, select bank0
  2505     0336  1806               	btfsc	6,0	;volatile
  2506     0337  2B39               	goto	u741
  2507     0338  2B3A               	goto	u740
  2508     0339                     u741:
  2509     0339  2B3C               	goto	l70
  2510     033A                     u740:
  2511     033A                     l1292:
  2512                           
  2513                           ;matrix_keypad.c: 56:     {;matrix_keypad.c: 57:         return 4;
  2514     033A  3004               	movlw	4
  2515     033B  2B9D               	goto	l62
  2516     033C                     l70:	
  2517                           ;matrix_keypad.c: 59:     else if (RB1 == 0)
  2518                           
  2519     033C  1886               	btfsc	6,1	;volatile
  2520     033D  2B3F               	goto	u751
  2521     033E  2B40               	goto	u750
  2522     033F                     u751:
  2523     033F  2B42               	goto	l72
  2524     0340                     u750:
  2525     0340                     l1298:
  2526                           
  2527                           ;matrix_keypad.c: 60:     {;matrix_keypad.c: 61:         return 5;
  2528     0340  3005               	movlw	5
  2529     0341  2B9D               	goto	l62
  2530     0342                     l72:	
  2531                           ;matrix_keypad.c: 63:     else if (RB2 == 0)
  2532                           
  2533     0342  1906               	btfsc	6,2	;volatile
  2534     0343  2B45               	goto	u761
  2535     0344  2B46               	goto	u760
  2536     0345                     u761:
  2537     0345  2B48               	goto	l71
  2538     0346                     u760:
  2539     0346                     l1304:
  2540                           
  2541                           ;matrix_keypad.c: 64:     {;matrix_keypad.c: 65:         return 6;
  2542     0346  3006               	movlw	6
  2543     0347  2B9D               	goto	l62
  2544     0348                     l71:
  2545                           
  2546                           ;matrix_keypad.c: 68:     RD3 = 1;
  2547     0348  1588               	bsf	8,3	;volatile
  2548                           
  2549                           ;matrix_keypad.c: 69:     RD2 = 1;
  2550     0349  1508               	bsf	8,2	;volatile
  2551                           
  2552                           ;matrix_keypad.c: 70:     RD1 = 0;
  2553     034A  1088               	bcf	8,1	;volatile
  2554                           
  2555                           ;matrix_keypad.c: 71:     RD0 = 1;
  2556     034B  1408               	bsf	8,0	;volatile
  2557     034C                     l1308:
  2558                           
  2559                           ;matrix_keypad.c: 73:     for (i = 100; i--; );
  2560     034C  3064               	movlw	100
  2561     034D  00F0               	movwf	scan_keypad@i
  2562     034E  3000               	movlw	0
  2563     034F  00F1               	movwf	scan_keypad@i+1
  2564     0350                     l1310:
  2565     0350  30FF               	movlw	255
  2566     0351  07F0               	addwf	scan_keypad@i,f
  2567     0352  1803               	skipnc
  2568     0353  0AF1               	incf	scan_keypad@i+1,f
  2569     0354  30FF               	movlw	255
  2570     0355  07F1               	addwf	scan_keypad@i+1,f
  2571     0356  0A70               	incf	scan_keypad@i,w
  2572     0357  1D03               	skipz
  2573     0358  2B5D               	goto	u771
  2574     0359  0A71               	incf	scan_keypad@i+1,w
  2575     035A  1D03               	btfss	3,2
  2576     035B  2B5D               	goto	u771
  2577     035C  2B5E               	goto	u770
  2578     035D                     u771:
  2579     035D  2B50               	goto	l1310
  2580     035E                     u770:
  2581     035E                     l77:
  2582                           
  2583                           ;matrix_keypad.c: 75:     if (RB0 == 0)
  2584     035E  1283               	bcf	3,5	;RP0=0, select bank0
  2585     035F  1303               	bcf	3,6	;RP1=0, select bank0
  2586     0360  1806               	btfsc	6,0	;volatile
  2587     0361  2B63               	goto	u781
  2588     0362  2B64               	goto	u780
  2589     0363                     u781:
  2590     0363  2B66               	goto	l78
  2591     0364                     u780:
  2592     0364                     l1312:
  2593                           
  2594                           ;matrix_keypad.c: 76:     {;matrix_keypad.c: 77:         return 7;
  2595     0364  3007               	movlw	7
  2596     0365  2B9D               	goto	l62
  2597     0366                     l78:	
  2598                           ;matrix_keypad.c: 79:     else if (RB1 == 0)
  2599                           
  2600     0366  1886               	btfsc	6,1	;volatile
  2601     0367  2B69               	goto	u791
  2602     0368  2B6A               	goto	u790
  2603     0369                     u791:
  2604     0369  2B6C               	goto	l80
  2605     036A                     u790:
  2606     036A                     l1318:
  2607                           
  2608                           ;matrix_keypad.c: 80:     {;matrix_keypad.c: 81:         return 8;
  2609     036A  3008               	movlw	8
  2610     036B  2B9D               	goto	l62
  2611     036C                     l80:	
  2612                           ;matrix_keypad.c: 83:     else if (RB2 == 0)
  2613                           
  2614     036C  1906               	btfsc	6,2	;volatile
  2615     036D  2B6F               	goto	u801
  2616     036E  2B70               	goto	u800
  2617     036F                     u801:
  2618     036F  2B72               	goto	l79
  2619     0370                     u800:
  2620     0370                     l1324:
  2621                           
  2622                           ;matrix_keypad.c: 84:     {;matrix_keypad.c: 85:         return 9;
  2623     0370  3009               	movlw	9
  2624     0371  2B9D               	goto	l62
  2625     0372                     l79:
  2626                           
  2627                           ;matrix_keypad.c: 88:     RD3 = 1;
  2628     0372  1588               	bsf	8,3	;volatile
  2629                           
  2630                           ;matrix_keypad.c: 89:     RD2 = 1;
  2631     0373  1508               	bsf	8,2	;volatile
  2632                           
  2633                           ;matrix_keypad.c: 90:     RD1 = 1;
  2634     0374  1488               	bsf	8,1	;volatile
  2635                           
  2636                           ;matrix_keypad.c: 91:     RD0 = 0;
  2637     0375  1008               	bcf	8,0	;volatile
  2638     0376                     l1328:
  2639                           
  2640                           ;matrix_keypad.c: 93:     for (i = 100; i--; );
  2641     0376  3064               	movlw	100
  2642     0377  00F0               	movwf	scan_keypad@i
  2643     0378  3000               	movlw	0
  2644     0379  00F1               	movwf	scan_keypad@i+1
  2645     037A                     l1330:
  2646     037A  30FF               	movlw	255
  2647     037B  07F0               	addwf	scan_keypad@i,f
  2648     037C  1803               	skipnc
  2649     037D  0AF1               	incf	scan_keypad@i+1,f
  2650     037E  30FF               	movlw	255
  2651     037F  07F1               	addwf	scan_keypad@i+1,f
  2652     0380  0A70               	incf	scan_keypad@i,w
  2653     0381  1D03               	skipz
  2654     0382  2B87               	goto	u811
  2655     0383  0A71               	incf	scan_keypad@i+1,w
  2656     0384  1D03               	btfss	3,2
  2657     0385  2B87               	goto	u811
  2658     0386  2B88               	goto	u810
  2659     0387                     u811:
  2660     0387  2B7A               	goto	l1330
  2661     0388                     u810:
  2662     0388                     l85:
  2663                           
  2664                           ;matrix_keypad.c: 95:     if (RB0 == 0)
  2665     0388  1283               	bcf	3,5	;RP0=0, select bank0
  2666     0389  1303               	bcf	3,6	;RP1=0, select bank0
  2667     038A  1806               	btfsc	6,0	;volatile
  2668     038B  2B8D               	goto	u821
  2669     038C  2B8E               	goto	u820
  2670     038D                     u821:
  2671     038D  2B90               	goto	l86
  2672     038E                     u820:
  2673     038E                     l1332:
  2674                           
  2675                           ;matrix_keypad.c: 96:     {;matrix_keypad.c: 97:         return '*';
  2676     038E  302A               	movlw	42
  2677     038F  2B9D               	goto	l62
  2678     0390                     l86:	
  2679                           ;matrix_keypad.c: 99:     else if (RB1 == 0)
  2680                           
  2681     0390  1886               	btfsc	6,1	;volatile
  2682     0391  2B93               	goto	u831
  2683     0392  2B94               	goto	u830
  2684     0393                     u831:
  2685     0393  2B96               	goto	l88
  2686     0394                     u830:
  2687     0394                     l1338:
  2688                           
  2689                           ;matrix_keypad.c: 100:     {;matrix_keypad.c: 101:         return 0;
  2690     0394  3000               	movlw	0
  2691     0395  2B9D               	goto	l62
  2692     0396                     l88:	
  2693                           ;matrix_keypad.c: 103:     else if (RB2 == 0)
  2694                           
  2695     0396  1906               	btfsc	6,2	;volatile
  2696     0397  2B99               	goto	u841
  2697     0398  2B9A               	goto	u840
  2698     0399                     u841:
  2699     0399  2B9C               	goto	l1348
  2700     039A                     u840:
  2701     039A                     l1344:
  2702                           
  2703                           ;matrix_keypad.c: 104:     {;matrix_keypad.c: 105:         return '#';
  2704     039A  3023               	movlw	35
  2705     039B  2B9D               	goto	l62
  2706     039C                     l1348:
  2707                           
  2708                           ;matrix_keypad.c: 108:     return 0xFF;
  2709     039C  30FF               	movlw	255
  2710     039D                     l62:
  2711     039D  0008               	return
  2712     039E                     __end_of_scan_keypad:
  2713                           
  2714                           	psect	text4
  2715     01D2                     __ptext4:	
  2716 ;; *************** function _init_config *****************
  2717 ;; Defined at:
  2718 ;;		line 31 in file "main.c"
  2719 ;; Parameters:    Size  Location     Type
  2720 ;;		None
  2721 ;; Auto vars:     Size  Location     Type
  2722 ;;		None
  2723 ;; Return value:  Size  Location     Type
  2724 ;;                  1    wreg      void 
  2725 ;; Registers used:
  2726 ;;		wreg, status,2, status,0, pclath, cstack
  2727 ;; Tracked objects:
  2728 ;;		On entry : 0/0
  2729 ;;		On exit  : 0/0
  2730 ;;		Unchanged: 0/0
  2731 ;; Data sizes:     COMMON   BANK0   BANK1   BANK3   BANK2
  2732 ;;      Params:         0       0       0       0       0
  2733 ;;      Locals:         0       0       0       0       0
  2734 ;;      Temps:          0       0       0       0       0
  2735 ;;      Totals:         0       0       0       0       0
  2736 ;;Total ram usage:        0 bytes
  2737 ;; Hardware stack levels used: 1
  2738 ;; Hardware stack levels required when called: 3
  2739 ;; This function calls:
  2740 ;;		_init_clcd
  2741 ;;		_init_matrix_keypad
  2742 ;; This function is called by:
  2743 ;;		_main
  2744 ;; This function uses a non-reentrant model
  2745 ;;
  2746                           
  2747     01D2                     _init_config:	
  2748                           ;psect for function _init_config
  2749                           
  2750     01D2                     l1390:	
  2751                           ;incstack = 0
  2752                           ; Regs used in _init_config: [wreg+status,2+status,0+pclath+cstack]
  2753                           
  2754                           
  2755                           ;main.c: 33:             {
  2756     01D2  3080               	movlw	128
  2757     01D3  1283               	bcf	3,5	;RP0=0, select bank0
  2758     01D4  1303               	bcf	3,6	;RP1=0, select bank0
  2759     01D5  0086               	movwf	6	;volatile
  2760     01D6                     l1392:
  2761                           
  2762                           ;main.c: 34:               clcd_print("Enter Password",(0x80 + 0));
  2763     01D6  1683               	bsf	3,5	;RP0=1, select bank1
  2764     01D7  1303               	bcf	3,6	;RP1=0, select bank1
  2765     01D8  0806               	movf	6,w	;volatile
  2766     01D9  397F               	andlw	127
  2767     01DA  0086               	movwf	6	;volatile
  2768     01DB                     l1394:
  2769                           
  2770                           ;main.c: 35:               if(i == 0)
  2771     01DB  120A  118A  21A4  120A  118A  	fcall	_init_clcd
  2772     01E0                     l1396:
  2773                           
  2774                           ;main.c: 36:               {
  2775     01E0  120A  118A  21AF  120A  118A  	fcall	_init_matrix_keypad
  2776     01E5                     l121:
  2777     01E5  0008               	return
  2778     01E6                     __end_of_init_config:
  2779                           
  2780                           	psect	text5
  2781     01AF                     __ptext5:	
  2782 ;; *************** function _init_matrix_keypad *****************
  2783 ;; Defined at:
  2784 ;;		line 4 in file "matrix_keypad.c"
  2785 ;; Parameters:    Size  Location     Type
  2786 ;;		None
  2787 ;; Auto vars:     Size  Location     Type
  2788 ;;		None
  2789 ;; Return value:  Size  Location     Type
  2790 ;;                  1    wreg      void 
  2791 ;; Registers used:
  2792 ;;		wreg, status,2
  2793 ;; Tracked objects:
  2794 ;;		On entry : 0/0
  2795 ;;		On exit  : 0/0
  2796 ;;		Unchanged: 0/0
  2797 ;; Data sizes:     COMMON   BANK0   BANK1   BANK3   BANK2
  2798 ;;      Params:         0       0       0       0       0
  2799 ;;      Locals:         0       0       0       0       0
  2800 ;;      Temps:          0       0       0       0       0
  2801 ;;      Totals:         0       0       0       0       0
  2802 ;;Total ram usage:        0 bytes
  2803 ;; Hardware stack levels used: 1
  2804 ;; This function calls:
  2805 ;;		Nothing
  2806 ;; This function is called by:
  2807 ;;		_init_config
  2808 ;; This function uses a non-reentrant model
  2809 ;;
  2810                           
  2811     01AF                     _init_matrix_keypad:	
  2812                           ;psect for function _init_matrix_keypad
  2813                           
  2814     01AF                     l1254:	
  2815                           ;incstack = 0
  2816                           ; Regs used in _init_matrix_keypad: [wreg+status,2]
  2817                           
  2818                           
  2819                           ;matrix_keypad.c: 8:     TRISB = TRISB | 0x07;
  2820     01AF  1683               	bsf	3,5	;RP0=1, select bank1
  2821     01B0  1303               	bcf	3,6	;RP1=0, select bank1
  2822     01B1  0806               	movf	6,w	;volatile
  2823     01B2  3807               	iorlw	7
  2824     01B3  0086               	movwf	6	;volatile
  2825                           
  2826                           ;matrix_keypad.c: 12:     TRISD = TRISD & 0xF0;
  2827     01B4  0808               	movf	8,w	;volatile
  2828     01B5  39F0               	andlw	240
  2829     01B6  0088               	movwf	8	;volatile
  2830     01B7                     l1256:
  2831                           
  2832                           ;matrix_keypad.c: 15:     nRBPU = 0;
  2833     01B7  1381               	bcf	1,7	;volatile
  2834     01B8                     l1258:
  2835                           
  2836                           ;matrix_keypad.c: 18:     RD3 = 1;
  2837     01B8  1283               	bcf	3,5	;RP0=0, select bank0
  2838     01B9  1303               	bcf	3,6	;RP1=0, select bank0
  2839     01BA  1588               	bsf	8,3	;volatile
  2840     01BB                     l1260:
  2841                           
  2842                           ;matrix_keypad.c: 19:     RD2 = 1;
  2843     01BB  1508               	bsf	8,2	;volatile
  2844     01BC                     l1262:
  2845                           
  2846                           ;matrix_keypad.c: 20:     RD1 = 1;
  2847     01BC  1488               	bsf	8,1	;volatile
  2848     01BD                     l1264:
  2849                           
  2850                           ;matrix_keypad.c: 21:     RD0 = 1;
  2851     01BD  1408               	bsf	8,0	;volatile
  2852     01BE                     l55:
  2853     01BE  0008               	return
  2854     01BF                     __end_of_init_matrix_keypad:
  2855                           
  2856                           	psect	text6
  2857     01A4                     __ptext6:	
  2858 ;; *************** function _init_clcd *****************
  2859 ;; Defined at:
  2860 ;;		line 44 in file "clcd.c"
  2861 ;; Parameters:    Size  Location     Type
  2862 ;;		None
  2863 ;; Auto vars:     Size  Location     Type
  2864 ;;		None
  2865 ;; Return value:  Size  Location     Type
  2866 ;;                  1    wreg      void 
  2867 ;; Registers used:
  2868 ;;		wreg, status,2, status,0, pclath, cstack
  2869 ;; Tracked objects:
  2870 ;;		On entry : 0/0
  2871 ;;		On exit  : 0/0
  2872 ;;		Unchanged: 0/0
  2873 ;; Data sizes:     COMMON   BANK0   BANK1   BANK3   BANK2
  2874 ;;      Params:         0       0       0       0       0
  2875 ;;      Locals:         0       0       0       0       0
  2876 ;;      Temps:          0       0       0       0       0
  2877 ;;      Totals:         0       0       0       0       0
  2878 ;;Total ram usage:        0 bytes
  2879 ;; Hardware stack levels used: 1
  2880 ;; Hardware stack levels required when called: 2
  2881 ;; This function calls:
  2882 ;;		_init_display_controller
  2883 ;; This function is called by:
  2884 ;;		_init_config
  2885 ;; This function uses a non-reentrant model
  2886 ;;
  2887                           
  2888     01A4                     _init_clcd:	
  2889                           ;psect for function _init_clcd
  2890                           
  2891     01A4                     l1246:	
  2892                           ;incstack = 0
  2893                           ; Regs used in _init_clcd: [wreg+status,2+status,0+pclath+cstack]
  2894                           
  2895                           
  2896                           ;clcd.c: 47:     TRISD = 0x00;
  2897     01A4  1683               	bsf	3,5	;RP0=1, select bank1
  2898     01A5  1303               	bcf	3,6	;RP1=0, select bank1
  2899     01A6  0188               	clrf	8	;volatile
  2900     01A7                     l1248:
  2901                           
  2902                           ;clcd.c: 50:     TRISE2 = 0;
  2903     01A7  1109               	bcf	9,2	;volatile
  2904     01A8                     l1250:
  2905                           
  2906                           ;clcd.c: 51:     TRISE1 = 0;
  2907     01A8  1089               	bcf	9,1	;volatile
  2908     01A9                     l1252:
  2909                           
  2910                           ;clcd.c: 53:     init_display_controller();
  2911     01A9  120A  118A  228F  120A  118A  	fcall	_init_display_controller
  2912     01AE                     l23:
  2913     01AE  0008               	return
  2914     01AF                     __end_of_init_clcd:
  2915                           
  2916                           	psect	text7
  2917     028F                     __ptext7:	
  2918 ;; *************** function _init_display_controller *****************
  2919 ;; Defined at:
  2920 ;;		line 21 in file "clcd.c"
  2921 ;; Parameters:    Size  Location     Type
  2922 ;;		None
  2923 ;; Auto vars:     Size  Location     Type
  2924 ;;		None
  2925 ;; Return value:  Size  Location     Type
  2926 ;;                  1    wreg      void 
  2927 ;; Registers used:
  2928 ;;		wreg, status,2, status,0, pclath, cstack
  2929 ;; Tracked objects:
  2930 ;;		On entry : 0/0
  2931 ;;		On exit  : 0/0
  2932 ;;		Unchanged: 0/0
  2933 ;; Data sizes:     COMMON   BANK0   BANK1   BANK3   BANK2
  2934 ;;      Params:         0       0       0       0       0
  2935 ;;      Locals:         0       0       0       0       0
  2936 ;;      Temps:          2       0       0       0       0
  2937 ;;      Totals:         2       0       0       0       0
  2938 ;;Total ram usage:        2 bytes
  2939 ;; Hardware stack levels used: 1
  2940 ;; Hardware stack levels required when called: 1
  2941 ;; This function calls:
  2942 ;;		_clcd_write
  2943 ;; This function is called by:
  2944 ;;		_init_clcd
  2945 ;; This function uses a non-reentrant model
  2946 ;;
  2947                           
  2948     028F                     _init_display_controller:	
  2949                           ;psect for function _init_display_controller
  2950                           
  2951     028F                     l1222:	
  2952                           ;incstack = 0
  2953                           ; Regs used in _init_display_controller: [wreg+status,2+status,0+pclath+cstack]
  2954                           
  2955                           
  2956                           ;clcd.c: 24:     _delay((unsigned long)((30)*(20000000/4000.0)));
  2957     028F  30C3               	movlw	195
  2958     0290  00F5               	movwf	??_init_display_controller+1
  2959     0291  30CD               	movlw	205
  2960     0292  00F4               	movwf	??_init_display_controller
  2961     0293                     u1327:
  2962     0293  0BF4               	decfsz	??_init_display_controller,f
  2963     0294  2A93               	goto	u1327
  2964     0295  0BF5               	decfsz	??_init_display_controller+1,f
  2965     0296  2A93               	goto	u1327
  2966     0297                     l1224:
  2967                           
  2968                           ;clcd.c: 27:     clcd_write(0x33, 0);
  2969     0297  01F0               	clrf	clcd_write@mode
  2970     0298  3033               	movlw	51
  2971     0299  120A  118A  2259  120A  118A  	fcall	_clcd_write
  2972     029E                     l1226:
  2973                           
  2974                           ;clcd.c: 28:     _delay((unsigned long)((4100)*(20000000/4000000.0)));
  2975     029E  301B               	movlw	27
  2976     029F  00F5               	movwf	??_init_display_controller+1
  2977     02A0  309E               	movlw	158
  2978     02A1  00F4               	movwf	??_init_display_controller
  2979     02A2                     u1337:
  2980     02A2  0BF4               	decfsz	??_init_display_controller,f
  2981     02A3  2AA2               	goto	u1337
  2982     02A4  0BF5               	decfsz	??_init_display_controller+1,f
  2983     02A5  2AA2               	goto	u1337
  2984     02A6  0000               	nop
  2985                           
  2986                           ;clcd.c: 29:     clcd_write(0x33, 0);
  2987     02A7  01F0               	clrf	clcd_write@mode
  2988     02A8  3033               	movlw	51
  2989     02A9  120A  118A  2259  120A  118A  	fcall	_clcd_write
  2990     02AE                     l1228:
  2991                           
  2992                           ;clcd.c: 30:     _delay((unsigned long)((100)*(20000000/4000000.0)));
  2993     02AE  30A6               	movlw	166
  2994     02AF  00F4               	movwf	??_init_display_controller
  2995     02B0                     u1347:
  2996     02B0  0BF4               	decfsz	??_init_display_controller,f
  2997     02B1  2AB0               	goto	u1347
  2998     02B2  0000               	nop
  2999     02B3                     l1230:
  3000                           
  3001                           ;clcd.c: 31:     clcd_write(0x33, 0);
  3002     02B3  01F0               	clrf	clcd_write@mode
  3003     02B4  3033               	movlw	51
  3004     02B5  120A  118A  2259  120A  118A  	fcall	_clcd_write
  3005     02BA                     l1232:
  3006                           
  3007                           ;clcd.c: 32:     _delay((unsigned long)((1)*(20000000/4000000.0)));
  3008     02BA  2ABB               	nop2	;2 cycle nop
  3009     02BB  2ABC               	nop2	;2 cycle nop
  3010     02BC  0000               	nop
  3011     02BD                     l1234:
  3012                           
  3013                           ;clcd.c: 34:     clcd_write(0x02, 0);
  3014     02BD  01F0               	clrf	clcd_write@mode
  3015     02BE  3002               	movlw	2
  3016     02BF  120A  118A  2259  120A  118A  	fcall	_clcd_write
  3017     02C4                     l1236:
  3018                           
  3019                           ;clcd.c: 35:     _delay((unsigned long)((100)*(20000000/4000000.0)));
  3020     02C4  30A6               	movlw	166
  3021     02C5  00F4               	movwf	??_init_display_controller
  3022     02C6                     u1357:
  3023     02C6  0BF4               	decfsz	??_init_display_controller,f
  3024     02C7  2AC6               	goto	u1357
  3025     02C8  0000               	nop
  3026                           
  3027                           ;clcd.c: 36:     clcd_write(0x28, 0);
  3028     02C9  01F0               	clrf	clcd_write@mode
  3029     02CA  3028               	movlw	40
  3030     02CB  120A  118A  2259  120A  118A  	fcall	_clcd_write
  3031     02D0                     l1238:
  3032                           
  3033                           ;clcd.c: 37:     _delay((unsigned long)((100)*(20000000/4000000.0)));
  3034     02D0  30A6               	movlw	166
  3035     02D1  00F4               	movwf	??_init_display_controller
  3036     02D2                     u1367:
  3037     02D2  0BF4               	decfsz	??_init_display_controller,f
  3038     02D3  2AD2               	goto	u1367
  3039     02D4  0000               	nop
  3040     02D5                     l1240:
  3041                           
  3042                           ;clcd.c: 38:     clcd_write(0x01, 0);
  3043     02D5  01F0               	clrf	clcd_write@mode
  3044     02D6  3001               	movlw	1
  3045     02D7  120A  118A  2259  120A  118A  	fcall	_clcd_write
  3046                           
  3047                           ;clcd.c: 39:     _delay((unsigned long)((500)*(20000000/4000000.0)));
  3048     02DC  3004               	movlw	4
  3049     02DD  00F5               	movwf	??_init_display_controller+1
  3050     02DE  303D               	movlw	61
  3051     02DF  00F4               	movwf	??_init_display_controller
  3052     02E0                     u1377:
  3053     02E0  0BF4               	decfsz	??_init_display_controller,f
  3054     02E1  2AE0               	goto	u1377
  3055     02E2  0BF5               	decfsz	??_init_display_controller+1,f
  3056     02E3  2AE0               	goto	u1377
  3057     02E4  2AE5               	nop2
  3058     02E5                     l1242:
  3059                           
  3060                           ;clcd.c: 40:     clcd_write(0x0C, 0);
  3061     02E5  01F0               	clrf	clcd_write@mode
  3062     02E6  300C               	movlw	12
  3063     02E7  120A  118A  2259  120A  118A  	fcall	_clcd_write
  3064     02EC                     l1244:
  3065                           
  3066                           ;clcd.c: 41:     _delay((unsigned long)((100)*(20000000/4000000.0)));
  3067     02EC  30A6               	movlw	166
  3068     02ED  00F4               	movwf	??_init_display_controller
  3069     02EE                     u1387:
  3070     02EE  0BF4               	decfsz	??_init_display_controller,f
  3071     02EF  2AEE               	goto	u1387
  3072     02F0  0000               	nop
  3073     02F1                     l20:
  3074     02F1  0008               	return
  3075     02F2                     __end_of_init_display_controller:
  3076                           
  3077                           	psect	text8
  3078     0209                     __ptext8:	
  3079 ;; *************** function _clcd_print *****************
  3080 ;; Defined at:
  3081 ;;		line 62 in file "clcd.c"
  3082 ;; Parameters:    Size  Location     Type
  3083 ;;  str             1    wreg     PTR const unsigned char 
  3084 ;;		 -> STR_40(16), STR_39(15), STR_38(17), STR_37(17), 
  3085 ;;		 -> STR_36(16), STR_35(17), STR_34(16), STR_33(17), 
  3086 ;;		 -> STR_32(16), STR_31(17), STR_30(16), STR_29(17), 
  3087 ;;		 -> STR_28(16), STR_27(17), STR_26(17), STR_25(17), 
  3088 ;;		 -> STR_24(2), STR_23(2), STR_22(8), STR_21(2), 
  3089 ;;		 -> STR_20(2), STR_19(7), STR_18(2), STR_17(2), 
  3090 ;;		 -> STR_16(6), STR_15(2), STR_14(2), STR_13(5), 
  3091 ;;		 -> STR_12(2), STR_11(2), STR_10(4), STR_9(2), 
  3092 ;;		 -> STR_8(2), STR_7(3), STR_6(2), STR_5(2), 
  3093 ;;		 -> STR_4(2), STR_3(2), STR_2(2), STR_1(15), 
  3094 ;;  addr            1    4[COMMON] unsigned char 
  3095 ;; Auto vars:     Size  Location     Type
  3096 ;;  str             1    6[COMMON] PTR const unsigned char 
  3097 ;;		 -> STR_40(16), STR_39(15), STR_38(17), STR_37(17), 
  3098 ;;		 -> STR_36(16), STR_35(17), STR_34(16), STR_33(17), 
  3099 ;;		 -> STR_32(16), STR_31(17), STR_30(16), STR_29(17), 
  3100 ;;		 -> STR_28(16), STR_27(17), STR_26(17), STR_25(17), 
  3101 ;;		 -> STR_24(2), STR_23(2), STR_22(8), STR_21(2), 
  3102 ;;		 -> STR_20(2), STR_19(7), STR_18(2), STR_17(2), 
  3103 ;;		 -> STR_16(6), STR_15(2), STR_14(2), STR_13(5), 
  3104 ;;		 -> STR_12(2), STR_11(2), STR_10(4), STR_9(2), 
  3105 ;;		 -> STR_8(2), STR_7(3), STR_6(2), STR_5(2), 
  3106 ;;		 -> STR_4(2), STR_3(2), STR_2(2), STR_1(15), 
  3107 ;; Return value:  Size  Location     Type
  3108 ;;                  1    wreg      void 
  3109 ;; Registers used:
  3110 ;;		wreg, fsr0l, fsr0h, status,2, status,0, pclath, cstack
  3111 ;; Tracked objects:
  3112 ;;		On entry : 0/0
  3113 ;;		On exit  : 0/0
  3114 ;;		Unchanged: 0/0
  3115 ;; Data sizes:     COMMON   BANK0   BANK1   BANK3   BANK2
  3116 ;;      Params:         1       0       0       0       0
  3117 ;;      Locals:         1       0       0       0       0
  3118 ;;      Temps:          1       0       0       0       0
  3119 ;;      Totals:         3       0       0       0       0
  3120 ;;Total ram usage:        3 bytes
  3121 ;; Hardware stack levels used: 1
  3122 ;; Hardware stack levels required when called: 1
  3123 ;; This function calls:
  3124 ;;		_clcd_write
  3125 ;; This function is called by:
  3126 ;;		_main
  3127 ;; This function uses a non-reentrant model
  3128 ;;
  3129                           
  3130     0209                     _clcd_print:	
  3131                           ;psect for function _clcd_print
  3132                           
  3133                           
  3134                           ;incstack = 0
  3135                           ; Regs used in _clcd_print: [wreg-fsr0h+status,2+status,0+pclath+cstack]
  3136                           ;clcd_print@str stored from wreg
  3137     0209  00F6               	movwf	clcd_print@str
  3138     020A                     l1352:
  3139                           
  3140                           ;clcd.c: 62: void clcd_print(const char *str, unsigned char addr);clcd.c: 63: {;clcd.c: 
      +                          64:     clcd_write(addr, 0);
  3141     020A  01F0               	clrf	clcd_write@mode
  3142     020B  0874               	movf	clcd_print@addr,w
  3143     020C  120A  118A  2259  120A  118A  	fcall	_clcd_write
  3144                           
  3145                           ;clcd.c: 66:     while (*str != '\0')
  3146     0211  2A24               	goto	l1358
  3147     0212                     l1354:
  3148                           
  3149                           ;clcd.c: 67:     {;clcd.c: 68:         clcd_write(*str, 1);
  3150     0212  01F0               	clrf	clcd_write@mode
  3151     0213  0AF0               	incf	clcd_write@mode,f
  3152     0214  0876               	movf	clcd_print@str,w
  3153     0215  0084               	movwf	4
  3154     0216  120A  118A  2003  120A  118A  	fcall	stringdir
  3155     021B  120A  118A  2259  120A  118A  	fcall	_clcd_write
  3156     0220                     l1356:
  3157                           
  3158                           ;clcd.c: 69:         str++;
  3159     0220  3001               	movlw	1
  3160     0221  00F5               	movwf	??_clcd_print
  3161     0222  0875               	movf	??_clcd_print,w
  3162     0223  07F6               	addwf	clcd_print@str,f
  3163     0224                     l1358:
  3164                           
  3165                           ;clcd.c: 66:     while (*str != '\0')
  3166     0224  0876               	movf	clcd_print@str,w
  3167     0225  0084               	movwf	4
  3168     0226  120A  118A  2003  120A  118A  	fcall	stringdir
  3169     022B  3A00               	xorlw	0
  3170     022C  1D03               	skipz
  3171     022D  2A2F               	goto	u851
  3172     022E  2A30               	goto	u850
  3173     022F                     u851:
  3174     022F  2A12               	goto	l1354
  3175     0230                     u850:
  3176     0230                     l32:
  3177     0230  0008               	return
  3178     0231                     __end_of_clcd_print:
  3179                           
  3180                           	psect	text9
  3181     0259                     __ptext9:	
  3182 ;; *************** function _clcd_write *****************
  3183 ;; Defined at:
  3184 ;;		line 4 in file "clcd.c"
  3185 ;; Parameters:    Size  Location     Type
  3186 ;;  byte            1    wreg     unsigned char 
  3187 ;;  mode            1    0[COMMON] unsigned char 
  3188 ;; Auto vars:     Size  Location     Type
  3189 ;;  byte            1    3[COMMON] unsigned char 
  3190 ;; Return value:  Size  Location     Type
  3191 ;;                  1    wreg      void 
  3192 ;; Registers used:
  3193 ;;		wreg, status,2, status,0
  3194 ;; Tracked objects:
  3195 ;;		On entry : 0/0
  3196 ;;		On exit  : 0/0
  3197 ;;		Unchanged: 0/0
  3198 ;; Data sizes:     COMMON   BANK0   BANK1   BANK3   BANK2
  3199 ;;      Params:         1       0       0       0       0
  3200 ;;      Locals:         1       0       0       0       0
  3201 ;;      Temps:          2       0       0       0       0
  3202 ;;      Totals:         4       0       0       0       0
  3203 ;;Total ram usage:        4 bytes
  3204 ;; Hardware stack levels used: 1
  3205 ;; This function calls:
  3206 ;;		Nothing
  3207 ;; This function is called by:
  3208 ;;		_init_display_controller
  3209 ;;		_clcd_print
  3210 ;;		_clcd_putch
  3211 ;; This function uses a non-reentrant model
  3212 ;;
  3213                           
  3214     0259                     _clcd_write:	
  3215                           ;psect for function _clcd_write
  3216                           
  3217                           
  3218                           ;incstack = 0
  3219                           ; Regs used in _clcd_write: [wreg+status,2+status,0]
  3220                           ;clcd_write@byte stored from wreg
  3221     0259  00F3               	movwf	clcd_write@byte
  3222     025A                     l1202:
  3223                           
  3224                           ;clcd.c: 4: static void clcd_write(unsigned char byte, unsigned char mode);clcd.c: 5: {;
      +                          clcd.c: 6:     RE2 = mode;
  3225     025A  1870               	btfsc	clcd_write@mode,0
  3226     025B  2A5D               	goto	u661
  3227     025C  2A61               	goto	u660
  3228     025D                     u661:
  3229     025D  1283               	bcf	3,5	;RP0=0, select bank0
  3230     025E  1303               	bcf	3,6	;RP1=0, select bank0
  3231     025F  1509               	bsf	9,2	;volatile
  3232     0260  2A64               	goto	u674
  3233     0261                     u660:
  3234     0261  1283               	bcf	3,5	;RP0=0, select bank0
  3235     0262  1303               	bcf	3,6	;RP1=0, select bank0
  3236     0263  1109               	bcf	9,2	;volatile
  3237     0264                     u674:
  3238     0264                     l1204:
  3239                           
  3240                           ;clcd.c: 8:     PORTD = byte & 0xF0;
  3241     0264  0873               	movf	clcd_write@byte,w
  3242     0265  39F0               	andlw	240
  3243     0266  0088               	movwf	8	;volatile
  3244     0267                     l1206:
  3245                           
  3246                           ;clcd.c: 9:     RE1 = 1;
  3247     0267  1489               	bsf	9,1	;volatile
  3248     0268                     l1208:
  3249                           
  3250                           ;clcd.c: 10:     _delay((unsigned long)((100)*(20000000/4000000.0)));
  3251     0268  30A6               	movlw	166
  3252     0269  00F1               	movwf	??_clcd_write
  3253     026A                     u1397:
  3254     026A  0BF1               	decfsz	??_clcd_write,f
  3255     026B  2A6A               	goto	u1397
  3256     026C  0000               	nop
  3257     026D                     l1210:
  3258                           
  3259                           ;clcd.c: 11:     RE1 = 0;
  3260     026D  1283               	bcf	3,5	;RP0=0, select bank0
  3261     026E  1303               	bcf	3,6	;RP1=0, select bank0
  3262     026F  1089               	bcf	9,1	;volatile
  3263     0270                     l1212:
  3264                           
  3265                           ;clcd.c: 13:     PORTD = (byte & 0x0F) << 4;
  3266     0270  0873               	movf	clcd_write@byte,w
  3267     0271  390F               	andlw	15
  3268     0272  00F1               	movwf	??_clcd_write
  3269     0273  3003               	movlw	3
  3270     0274                     u685:
  3271     0274  1003               	clrc
  3272     0275  0DF1               	rlf	??_clcd_write,f
  3273     0276  3EFF               	addlw	-1
  3274     0277  1D03               	skipz
  3275     0278  2A74               	goto	u685
  3276     0279  1003               	clrc
  3277     027A  0D71               	rlf	??_clcd_write,w
  3278     027B  0088               	movwf	8	;volatile
  3279     027C                     l1214:
  3280                           
  3281                           ;clcd.c: 14:     RE1 = 1;
  3282     027C  1489               	bsf	9,1	;volatile
  3283     027D                     l1216:
  3284                           
  3285                           ;clcd.c: 15:     _delay((unsigned long)((100)*(20000000/4000000.0)));
  3286     027D  30A6               	movlw	166
  3287     027E  00F1               	movwf	??_clcd_write
  3288     027F                     u1407:
  3289     027F  0BF1               	decfsz	??_clcd_write,f
  3290     0280  2A7F               	goto	u1407
  3291     0281  0000               	nop
  3292     0282                     l1218:
  3293                           
  3294                           ;clcd.c: 16:     RE1 = 0;
  3295     0282  1283               	bcf	3,5	;RP0=0, select bank0
  3296     0283  1303               	bcf	3,6	;RP1=0, select bank0
  3297     0284  1089               	bcf	9,1	;volatile
  3298     0285                     l1220:
  3299                           
  3300                           ;clcd.c: 18:     _delay((unsigned long)((4100)*(20000000/4000000.0)));
  3301     0285  301B               	movlw	27
  3302     0286  00F2               	movwf	??_clcd_write+1
  3303     0287  309E               	movlw	158
  3304     0288  00F1               	movwf	??_clcd_write
  3305     0289                     u1417:
  3306     0289  0BF1               	decfsz	??_clcd_write,f
  3307     028A  2A89               	goto	u1417
  3308     028B  0BF2               	decfsz	??_clcd_write+1,f
  3309     028C  2A89               	goto	u1417
  3310     028D  0000               	nop
  3311     028E                     l17:
  3312     028E  0008               	return
  3313     028F                     __end_of_clcd_write:
  3314     007E                     btemp	set	126	;btemp
  3315     007E                     wtemp0	set	126
  3316                           
  3317                           	psect	config
  3318                           
  3319                           ;Config register CONFIG @ 0x2007
  3320                           ;	Oscillator Selection bits
  3321                           ;	FOSC = 0x3, unprogrammed default
  3322                           ;	Watchdog Timer Enable bit
  3323                           ;	WDTE = OFF, WDT disabled
  3324                           ;	Power-up Timer Enable bit
  3325                           ;	PWRTE = 0x1, unprogrammed default
  3326                           ;	Brown-out Reset Enable bit
  3327                           ;	BOREN = 0x1, unprogrammed default
  3328                           ;	Low-Voltage (Single-Supply) In-Circuit Serial Programming Enable bit
  3329                           ;	LVP = 0x1, unprogrammed default
  3330                           ;	Data EEPROM Memory Code Protection bit
  3331                           ;	CPD = 0x1, unprogrammed default
  3332                           ;	Flash Program Memory Write Enable bits
  3333                           ;	WRT = 0x3, unprogrammed default
  3334                           ;	In-Circuit Debugger Mode bit
  3335                           ;	DEBUG = 0x1, unprogrammed default
  3336                           ;	Flash Program Memory Code Protection bit
  3337                           ;	CP = 0x1, unprogrammed default
  3338     2007                     	org	8199
  3339     2007  3FFB               	dw	16379

Data Sizes:
    Strings     208
    Constant    0
    Data        10
    BSS         2
    Persistent  0
    Stack       0

Auto Spaces:
    Space          Size  Autos    Used
    COMMON           14     11      12
    BANK0            80     33      44
    BANK1            80      0       0
    BANK3            96      0       0
    BANK2            96      0       0

Pointer List with Targets:

    strcmp@s2	PTR const unsigned char  size(1) Largest target is 9
		 -> main@user_pass(BANK0[9]), 

    strcmp@s1	PTR const unsigned char  size(1) Largest target is 9
		 -> main@message(BANK0[9]), 

    clcd_print@str	PTR const unsigned char  size(1) Largest target is 17
		 -> STR_40(CODE[16]), STR_39(CODE[15]), STR_38(CODE[17]), STR_37(CODE[17]), 
		 -> STR_36(CODE[16]), STR_35(CODE[17]), STR_34(CODE[16]), STR_33(CODE[17]), 
		 -> STR_32(CODE[16]), STR_31(CODE[17]), STR_30(CODE[16]), STR_29(CODE[17]), 
		 -> STR_28(CODE[16]), STR_27(CODE[17]), STR_26(CODE[17]), STR_25(CODE[17]), 
		 -> STR_24(CODE[2]), STR_23(CODE[2]), STR_22(CODE[8]), STR_21(CODE[2]), 
		 -> STR_20(CODE[2]), STR_19(CODE[7]), STR_18(CODE[2]), STR_17(CODE[2]), 
		 -> STR_16(CODE[6]), STR_15(CODE[2]), STR_14(CODE[2]), STR_13(CODE[5]), 
		 -> STR_12(CODE[2]), STR_11(CODE[2]), STR_10(CODE[4]), STR_9(CODE[2]), 
		 -> STR_8(CODE[2]), STR_7(CODE[3]), STR_6(CODE[2]), STR_5(CODE[2]), 
		 -> STR_4(CODE[2]), STR_3(CODE[2]), STR_2(CODE[2]), STR_1(CODE[15]), 


Critical Paths under _main in COMMON

    _main->_clcd_print
    _read_matrix_keypad->_scan_keypad
    _init_clcd->_init_display_controller
    _init_display_controller->_clcd_write
    _clcd_print->_clcd_write

Critical Paths under _main in BANK0

    None.

Critical Paths under _main in BANK1

    None.

Critical Paths under _main in BANK3

    None.

Critical Paths under _main in BANK2

    None.

Call Graph Tables:

 ---------------------------------------------------------------------------------
 (Depth) Function   	        Calls       Base Space   Used Autos Params    Refs
 ---------------------------------------------------------------------------------
 (0) _main                                                43    43      0    7388
                                              7 COMMON     4     4      0
                                              0 BANK0     33    33      0
                         _clcd_print
                        _init_config
                 _read_matrix_keypad
                             _strcmp
 ---------------------------------------------------------------------------------
 (1) _strcmp                                               6     4      2     200
                                              0 COMMON     6     4      2
 ---------------------------------------------------------------------------------
 (1) _read_matrix_keypad                                   2     2      0     203
                                              2 COMMON     2     2      0
                        _scan_keypad
 ---------------------------------------------------------------------------------
 (2) _scan_keypad                                          2     2      0      92
                                              0 COMMON     2     2      0
 ---------------------------------------------------------------------------------
 (1) _init_config                                          0     0      0     902
                          _init_clcd
                 _init_matrix_keypad
 ---------------------------------------------------------------------------------
 (2) _init_matrix_keypad                                   0     0      0       0
 ---------------------------------------------------------------------------------
 (2) _init_clcd                                            0     0      0     902
            _init_display_controller
 ---------------------------------------------------------------------------------
 (3) _init_display_controller                              2     2      0     902
                                              4 COMMON     2     2      0
                         _clcd_write
 ---------------------------------------------------------------------------------
 (1) _clcd_print                                           3     2      1    5329
                                              4 COMMON     3     2      1
                         _clcd_write
 ---------------------------------------------------------------------------------
 (4) _clcd_write                                           4     3      1     902
                                              0 COMMON     4     3      1
 ---------------------------------------------------------------------------------
 Estimated maximum stack depth 4
 ---------------------------------------------------------------------------------

 Call Graph Graphs:

 _main (ROOT)
   _clcd_print
     _clcd_write
   _init_config
     _init_clcd
       _init_display_controller
         _clcd_write
     _init_matrix_keypad
   _read_matrix_keypad
     _scan_keypad
   _strcmp

 Address spaces:
Name               Size   Autos  Total    Cost      Usage
BANK3               60      0       0       9        0.0%
BITBANK3            60      0       0       8        0.0%
SFR3                 0      0       0       4        0.0%
BITSFR3              0      0       0       4        0.0%
BANK2               60      0       0      11        0.0%
BITBANK2            60      0       0      10        0.0%
SFR2                 0      0       0       5        0.0%
BITSFR2              0      0       0       5        0.0%
BANK1               50      0       0       7        0.0%
BITBANK1            50      0       0       6        0.0%
SFR1                 0      0       0       2        0.0%
BITSFR1              0      0       0       2        0.0%
BANK0               50     21      2C       5       55.0%
BITBANK0            50      0       0       4        0.0%
SFR0                 0      0       0       1        0.0%
BITSFR0              0      0       0       1        0.0%
COMMON               E      B       C       1       85.7%
BITCOMMON            E      0       0       0        0.0%
CODE                 0      0       0       0        0.0%
DATA                 0      0      38      12        0.0%
ABS                  0      0      38       3        0.0%
NULL                 0      0       0       0        0.0%
STACK                0      0       0       2        0.0%
EEDATA             100      0       0       0        0.0%


Microchip Technology PIC Macro Assembler V2.40 build 20220703182018 
Symbol Table                                                                                   Thu Sep 29 21:43:09 2022

                              pc 0002                   clcd_print@addr 0074                               l20 02F1  
                             l23 01AE                               l32 0230                               l17 028E  
                             l60 030A                               l61 0312                               l70 033C  
                             l62 039D                               l55 01BE                               l71 0348  
                             l63 031E                               l80 036C                               l72 0342  
                             l64 0318                               l85 0388                               l77 035E  
                             l69 0334                               l86 0390                               l78 0366  
                             l79 0372                               l88 0396                               l96 0208  
                             fsr 0004               _init_matrix_keypad 01AF                              l121 01E5  
                            l730 0258                              _RB0 0030                              _RB1 0031  
                            _RB2 0032                              _RD0 0040                              _RD1 0041  
                            _RD2 0042                              _RE1 0049                              _RD3 0043  
                            _RB7 0037                              _RE2 004A                              u700 0310  
                            u701 030F                              u710 0316                              u711 0315  
                            u800 0370                              u720 031C                              u801 036F  
                            u721 031B                              u810 0388                              u730 0334  
                            u811 0387                              u731 0333                              u660 0261  
                            u820 038E                              u740 033A                              u900 024C  
                            u661 025D                              u821 038D                              u741 0339  
                            u901 024B                              u830 0394                              u750 0340  
                            u910 0253                              u831 0393                              u751 033F  
                            u911 0252                              u840 039A                              u760 0346  
                            u920 03C1                              u841 0399                              u761 0345  
                            u674 0264                              u850 0230                              u770 035E  
                            u690 030A                              u930 03DD                              u851 022F  
                            u771 035D                              u691 0309                              u931 03DC  
                            u780 0364                              u860 01F2                              u940 0406  
                            u685 0274                              u781 0363                              u861 01F1  
                            u941 0405                              u790 036A                              u870 01F9  
                            u950 0416                              u791 0369                              u871 01F8  
                            u951 0415                              u880 01FE                              u960 042D  
                            u881 01FD                              u961 042C                              u945 0402  
                            u890 0205                              u970 0450                              u891 0204  
                            u971 044F                              u980 0471                              u981 0470  
                            u990 0495                              u991 0494                              fsr0 0004  
                            indf 0000              ?_init_matrix_keypad 0070                             l1210 026D  
                           l1202 025A                             l1220 0285                             l1212 0270  
                           l1204 0264                             l1214 027C                             l1206 0267  
                           l1230 02B3                             l1222 028F                             l1310 0350  
                           l1216 027D                             l1208 0268                             l1240 02D5  
                           l1232 02BA                             l1224 0297                             l1312 0364  
                           l1304 0346                             l1400 0233                             l1218 0282  
                           l1242 02E5                             l1234 02BD                             l1226 029E  
                           l1250 01A8                             l1330 037A                             l1402 0237  
                           l1244 02EC                             l1236 02C4                             l1228 02AE  
                           l1252 01A9                             l1260 01BB                             l1332 038E  
                           l1324 0370                             l1308 034C                             l1404 023B  
                           l1500 055B                             l1420 03B5                             l1238 02D0  
                           l1246 01A4                             l1262 01BC                             l1254 01AF  
                           l1318 036A                             l1270 02FC                             l1406 024C  
                           l1510 0598                             l1502 0564                             l1430 03DD  
                           l1422 03B9                             l1414 039E                             l1352 020A  
                           l1248 01A7                             l1264 01BD                             l1256 01B7  
                           l1344 039A                             l1328 0376                             l1272 0310  
                           l1360 01E7                             l1408 0253                             l1600 079E  
                           l1520 05D4                             l1504 056C                             l1512 05A0  
                           l1440 0406                             l1432 03DD                             l1424 03CE  
                           l1416 03A3                             l1354 0212                             l1258 01B8  
                           l1338 0394                             l1290 0326                             l1266 02F2  
                           l1370 01F4                             l1362 01ED                             l1602 07A5  
                           l1530 060F                             l1522 05DD                             l1514 05A9  
                           l1506 0585                             l1450 0440                             l1442 040E  
                           l1434 03E4                             l1426 03CF                             l1418 03AD  
                           l1356 0220                             l1348 039C                             l1292 033A  
                           l1284 031C                             l1268 02F8                             l1372 01F9  
                           l1364 01F2                             l1612 07DB                             l1540 0641  
                           l1532 0619                             l1516 05B1                             l1524 05E5  
                           l1508 058F                             l1460 047B                             l1444 0416  
                           l1452 0448                             l1436 03EA                             l1428 03D8  
                           l1358 0224                             l1390 01D2                             l1278 0316  
                           l1374 01FE                             l1382 0200                             l1614 07E1  
                           l1606 07BD                             l1550 067A                             l1542 0651  
                           l1534 0622                             l1526 05EE                             l1518 05CA  
                           l1470 04B6                             l1462 0484                             l1454 0450  
                           l1446 042D                             l1438 03F7                             l1392 01D6  
                           l1288 0322                             l1384 0205                             l1608 07C3  
                           l1560 06B5                             l1552 0683                             l1544 0652  
                           l1528 05F6                             l1480 04E2                             l1472 04C0  
                           l1456 0458                             l1464 048C                             l1448 0437  
                           l1536 062A                             l1394 01DB                             l1298 0340  
                           l1386 0207                             l1570 0702                             l1562 06C5  
                           l1554 0693                             l1546 0661                             l1538 0633  
                           l1490 051F                             l1482 04FB                             l1474 04C9  
                           l1466 0495                             l1458 0471                             l1396 01E0  
                           l1580 072D                             l1572 070A                             l1564 06CD  
                           l1556 069C                             l1548 066A                             l1492 0527  
                           l1484 0505                             l1468 049D                             l1476 04D1  
                           l1398 0232                             l1590 0767                             l1574 070C  
                           l1566 06DD                             l1558 06AC                             l1582 0733  
                           l1494 0540                             l1486 050E                             l1478 04DA  
                           l1584 073C                             l1576 0714                             l1568 06E7  
                           l1496 054A                             l1488 0516                             l1594 077F  
                           l1586 0753                             l1578 071D                             l1498 0553  
                           l1596 0786                             l1588 0760                             STR_1 00B1  
                           STR_2 00D7                             STR_3 0018                             STR_4 00D5  
                           STR_5 0018                             STR_6 00D7                             STR_7 00D4  
                           STR_8 00D7                             STR_9 0018                      main@attempt 003F  
                           u1000 04B6                             u1001 04B5                             u1010 04DA  
                           u1011 04D9                             u1100 060F                             u1020 04FB  
                           u1101 060E                             u1021 04FA                             u1110 0633  
                           u1030 051F                             u1111 0632                             u1031 051E  
                           u1200 073C                             u1120 0641                             u1040 0540  
                           u1201 073B                             u1121 0640                             u1041 053F  
                           u1210 0753                             u1130 0661                             u1050 0564  
                           u1211 0752                             u1131 0660                             u1051 0563  
                           u1300 07E1                             u1220 0767                             u1140 066A  
                           u1060 0585                             u1301 07E0                             u1221 0766  
                           u1141 0669                             u1061 0584                             u1230 077E  
                           u1150 0683                             u1070 05A9                             u1231 077D  
                           u1151 0682                             u1135 065D                             u1071 05A8  
                           u1240 0786                             u1160 069C                             u1080 05CA  
                           u1241 0785                             u1161 069B                             u1081 05C9  
                           u1250 079D                             u1170 06B5                             u1090 05EE  
                           u1251 079C                             u1171 06B4                             u1091 05ED  
                           u1260 07A5                             u1180 06CD                             u1261 07A4  
                           u1181 06CC                             u1317 03F0                             u1270 07BC  
                           u1190 0702                             u1407 027F                             u1327 0293  
                           u1271 07BB                             u1191 0701                             u1280 07C3  
                           u1417 0289                             u1337 02A2                             u1281 07C2  
                           u1290 07DA                             u1347 02B0                             u1291 07D9  
                           u1357 02C6                             u1367 02D2                             u1377 02E0  
                           u1387 02EE                             u1397 026A                      main@message 0020  
                           _main 039E                             btemp 007E                             start 0000  
           ??_init_matrix_keypad 0070                   clcd_write@byte 0073                   clcd_write@mode 0070  
                          ?_main 0070                            STR_10 00D3                            STR_11 00D7  
                          STR_12 0018                            STR_20 00D7                            STR_21 0018  
                          STR_13 00D2                            STR_30 0091                            STR_14 00D7  
                          STR_22 00CF                            STR_15 0018                            STR_23 00D7  
                          STR_31 003C                            STR_24 0018                            STR_32 0091  
                          STR_16 00D1                            STR_40 00A1                            STR_17 00D7  
                          STR_25 0080                            STR_33 002B                            STR_18 0018  
                          STR_34 0091                            STR_26 006F                            STR_19 00D0  
                          STR_27 005E                            STR_35 001A                            STR_36 0091  
                          STR_28 0091                            STR_29 004D                            STR_37 0009  
                          STR_38 0009                            STR_39 00C0                     ?_init_config 0070  
                          _PORTB 0006                            _PORTD 0008                            _TRISB 0086  
                          _TRISD 0088                            _nRBPU 040F               _read_matrix_keypad 01E6  
                          main@i 004A                            main@j 0032                            pclath 000A  
            ?_read_matrix_keypad 0070                            status 0003                            wtemp0 007E  
                   ?_scan_keypad 0070                  __initialization 07E6                     __end_of_main 07E6  
           ??_read_matrix_keypad 0072                           ??_main 0077                           _TRISE1 0449  
                         _TRISE2 044A          _init_display_controller 028F                           _strcmp 0231  
                   __pdataCOMMON 007B                    main@user_pass 0029          __end_of__initialization 07FC  
                 __pcstackCOMMON 0070                     __pidataBANK0 019B                       __pbssBANK0 004A  
      ??_init_display_controller 0074                       _clcd_print 0209                       _clcd_write 0259  
                     __pmaintext 039E                          ?_strcmp 0070                       __stringtab 0003  
                        __ptext1 0231                          __ptext2 01E6                          __ptext3 02F2  
                        __ptext4 01D2                          __ptext5 01AF                          __ptext6 01A4  
                        __ptext7 028F                          __ptext8 0209                          __ptext9 0259  
__end_of_init_display_controller 02F2                __end_of_init_clcd 01AF                          main@key 0036  
           end_of_initialization 07FC                      ?_clcd_print 0074                      ?_clcd_write 0070  
                        strcmp@r 0074                    clcd_print@str 0076                    __pidataCOMMON 019A  
                 __end_of_strcmp 0259              start_initialization 07E6                     scan_keypad@i 0070  
         read_matrix_keypad@mode 0072           read_matrix_keypad@once 007B                       init_fetch0 01BF  
                    __pdataBANK0 0041                         ??_strcmp 0072                    ??_init_config 0076  
                      ___latbits 0002                    __pcstackBANK0 0020                    ??_scan_keypad 0070  
                      __pstrings 0003                        _init_clcd 01A4              __end_of_init_config 01E6  
       ?_init_display_controller 0070                     ??_clcd_print 0075       __end_of_init_matrix_keypad 01BF  
                   ??_clcd_write 0071              __end_of_scan_keypad 039E                      __stringbase 0008  
                      main@wait2 003B               __end_of_clcd_print 0231               __end_of_clcd_write 028F  
                     ?_init_clcd 0070            read_matrix_keypad@key 0073       __end_of_read_matrix_keypad 0209  
             __end_of__stringtab 0009                      _init_config 01D2                      _scan_keypad 02F2  
                       main@F869 0041                         main@wait 0037                         init_ram0 01C3  
                    ??_init_clcd 0076                        stringcode 0003                         strcmp@s1 0075  
                       strcmp@s2 0070                         stringdir 0003                         stringtab 0003  
