

Microchip MPLAB XC8 Assembler V2.40 build 20220703182018 
                                                                                               Thu Sep 29 21:32:44 2022

Microchip MPLAB XC8 C Compiler v2.40 (Free license) build 20220703182018 Og1 
     1                           	processor	16F877A
     2                           	pagewidth 120
     3                           	opt	flic
     4                           	psect	idataCOMMON,global,class=CODE,delta=2,noexec
     5                           	psect	idataBANK1,global,class=CODE,delta=2,noexec
     6                           	psect	idataBANK3,global,class=CODE,delta=2,noexec
     7                           	psect	strings,global,class=STRING,delta=2,noexec
     8                           	psect	cinit,global,class=CODE,merge=1,delta=2
     9                           	psect	bssCOMMON,global,class=COMMON,space=1,delta=1,noexec
    10                           	psect	dataCOMMON,global,class=COMMON,space=1,delta=1,noexec
    11                           	psect	bssBANK0,global,class=BANK0,space=1,delta=1,noexec
    12                           	psect	bssBANK1,global,class=BANK1,space=1,delta=1,noexec
    13                           	psect	dataBANK1,global,class=BANK1,space=1,delta=1,noexec
    14                           	psect	dataBANK3,global,class=BANK3,space=1,delta=1,noexec
    15                           	psect	inittext,global,class=CODE,delta=2
    16                           	psect	clrtext,global,class=CODE,delta=2
    17                           	psect	cstackBANK1,global,class=BANK1,space=1,delta=1,noexec
    18                           	psect	cstackCOMMON,global,class=COMMON,space=1,delta=1,noexec
    19                           	psect	cstackBANK0,global,class=BANK0,space=1,delta=1,noexec
    20                           	psect	maintext,global,class=CODE,split=1,delta=2
    21                           	psect	text1,local,class=CODE,merge=1,delta=2
    22                           	psect	text2,local,class=CODE,merge=1,delta=2
    23                           	psect	text3,local,class=CODE,merge=1,delta=2
    24                           	psect	text4,local,class=CODE,merge=1,delta=2
    25                           	psect	text5,local,class=CODE,merge=1,delta=2
    26                           	psect	text6,local,class=CODE,merge=1,delta=2
    27                           	psect	text7,local,class=CODE,merge=1,delta=2
    28                           	psect	text8,local,class=CODE,merge=1,delta=2
    29                           	psect	text9,local,class=CODE,merge=1,delta=2
    30                           	psect	text10,local,class=CODE,merge=1,delta=2,group=1
    31                           	psect	text11,local,class=CODE,merge=1,delta=2,group=1
    32                           	psect	text12,local,class=CODE,merge=1,delta=2,group=1
    33                           	psect	text13,local,class=CODE,merge=1,delta=2,group=1
    34                           	psect	text14,local,class=CODE,merge=1,delta=2
    35                           	psect	intentry,global,class=CODE,delta=2
    36                           	psect	config,global,abs,ovrld,class=CONFIG,space=4,delta=2,noexec
    37                           	dabs	1,0x7E,2
    38     0000                     
    39                           ; Version 2.20
    40                           ; Generated 12/02/2020 GMT
    41                           ; 
    42                           ; Copyright © 2020, Microchip Technology Inc. and its subsidiaries ("Microchip")
    43                           ; All rights reserved.
    44                           ; 
    45                           ; This software is developed by Microchip Technology Inc. and its subsidiaries ("Microch
      +                          ip").
    46                           ; 
    47                           ; Redistribution and use in source and binary forms, with or without modification, are
    48                           ; permitted provided that the following conditions are met:
    49                           ; 
    50                           ;     1. Redistributions of source code must retain the above copyright notice, this lis
      +                          t of
    51                           ;        conditions and the following disclaimer.
    52                           ; 
    53                           ;     2. Redistributions in binary form must reproduce the above copyright notice, this 
      +                          list
    54                           ;        of conditions and the following disclaimer in the documentation and/or other
    55                           ;        materials provided with the distribution.
    56                           ; 
    57                           ;     3. Microchip's name may not be used to endorse or promote products derived from th
      +                          is
    58                           ;        software without specific prior written permission.
    59                           ; 
    60                           ; THIS SOFTWARE IS PROVIDED BY MICROCHIP "AS IS" AND ANY EXPRESS OR IMPLIED WARRANTIES,
    61                           ; INCLUDING, BUT NOT LIMITED TO, THE IMPLIED WARRANTIES OF MERCHANTABILITY AND FITNESS F
      +                          OR
    62                           ; PURPOSE ARE DISCLAIMED.  IN NO EVENT SHALL MICROCHIP BE LIABLE FOR ANY DIRECT, INDIREC
      +                          T,
    63                           ; INCIDENTAL, SPECIAL, EXEMPLARY, OR CONSEQUENTIAL DAMAGES (INCLUDING BUT NOT LIMITED TO
    64                           ; PROCUREMENT OF SUBSTITUTE GOODS OR SERVICES; LOSS OF USE, DATA OR PROFITS; OR BUSINESS
    65                           ; INTERRUPTION) HOWSOEVER CAUSED AND ON ANY THEORY OF LIABILITY, WHETHER IN CONTRACT, ST
      +                          RICT
    66                           ; LIABILITY, OR TORT (INCLUDING NEGLIGENCE OR OTHERWISE) ARISING IN ANY WAY OUT OF THE U
      +                          SE OF
    67                           ; THIS SOFTWARE, EVEN IF ADVISED OF THE POSSIBILITY OF SUCH DAMAGE.
    68                           ; 
    69                           ; 
    70                           ; Code-generator required, PIC16F877A Definitions
    71                           ; 
    72                           ; SFR Addresses
    73     0000                     	;# 
    74     0001                     	;# 
    75     0002                     	;# 
    76     0003                     	;# 
    77     0004                     	;# 
    78     0005                     	;# 
    79     0006                     	;# 
    80     0007                     	;# 
    81     0008                     	;# 
    82     0009                     	;# 
    83     000A                     	;# 
    84     000B                     	;# 
    85     000C                     	;# 
    86     000D                     	;# 
    87     000E                     	;# 
    88     000E                     	;# 
    89     000F                     	;# 
    90     0010                     	;# 
    91     0011                     	;# 
    92     0012                     	;# 
    93     0013                     	;# 
    94     0014                     	;# 
    95     0015                     	;# 
    96     0015                     	;# 
    97     0016                     	;# 
    98     0017                     	;# 
    99     0018                     	;# 
   100     0019                     	;# 
   101     001A                     	;# 
   102     001B                     	;# 
   103     001B                     	;# 
   104     001C                     	;# 
   105     001D                     	;# 
   106     001E                     	;# 
   107     001F                     	;# 
   108     0081                     	;# 
   109     0085                     	;# 
   110     0086                     	;# 
   111     0087                     	;# 
   112     0088                     	;# 
   113     0089                     	;# 
   114     008C                     	;# 
   115     008D                     	;# 
   116     008E                     	;# 
   117     0091                     	;# 
   118     0092                     	;# 
   119     0093                     	;# 
   120     0094                     	;# 
   121     0098                     	;# 
   122     0099                     	;# 
   123     009C                     	;# 
   124     009D                     	;# 
   125     009E                     	;# 
   126     009F                     	;# 
   127     010C                     	;# 
   128     010D                     	;# 
   129     010E                     	;# 
   130     010F                     	;# 
   131     018C                     	;# 
   132     018D                     	;# 
   133     0000                     	;# 
   134     0001                     	;# 
   135     0002                     	;# 
   136     0003                     	;# 
   137     0004                     	;# 
   138     0005                     	;# 
   139     0006                     	;# 
   140     0007                     	;# 
   141     0008                     	;# 
   142     0009                     	;# 
   143     000A                     	;# 
   144     000B                     	;# 
   145     000C                     	;# 
   146     000D                     	;# 
   147     000E                     	;# 
   148     000E                     	;# 
   149     000F                     	;# 
   150     0010                     	;# 
   151     0011                     	;# 
   152     0012                     	;# 
   153     0013                     	;# 
   154     0014                     	;# 
   155     0015                     	;# 
   156     0015                     	;# 
   157     0016                     	;# 
   158     0017                     	;# 
   159     0018                     	;# 
   160     0019                     	;# 
   161     001A                     	;# 
   162     001B                     	;# 
   163     001B                     	;# 
   164     001C                     	;# 
   165     001D                     	;# 
   166     001E                     	;# 
   167     001F                     	;# 
   168     0081                     	;# 
   169     0085                     	;# 
   170     0086                     	;# 
   171     0087                     	;# 
   172     0088                     	;# 
   173     0089                     	;# 
   174     008C                     	;# 
   175     008D                     	;# 
   176     008E                     	;# 
   177     0091                     	;# 
   178     0092                     	;# 
   179     0093                     	;# 
   180     0094                     	;# 
   181     0098                     	;# 
   182     0099                     	;# 
   183     009C                     	;# 
   184     009D                     	;# 
   185     009E                     	;# 
   186     009F                     	;# 
   187     010C                     	;# 
   188     010D                     	;# 
   189     010E                     	;# 
   190     010F                     	;# 
   191     018C                     	;# 
   192     018D                     	;# 
   193     0000                     	;# 
   194     0001                     	;# 
   195     0002                     	;# 
   196     0003                     	;# 
   197     0004                     	;# 
   198     0005                     	;# 
   199     0006                     	;# 
   200     0007                     	;# 
   201     0008                     	;# 
   202     0009                     	;# 
   203     000A                     	;# 
   204     000B                     	;# 
   205     000C                     	;# 
   206     000D                     	;# 
   207     000E                     	;# 
   208     000E                     	;# 
   209     000F                     	;# 
   210     0010                     	;# 
   211     0011                     	;# 
   212     0012                     	;# 
   213     0013                     	;# 
   214     0014                     	;# 
   215     0015                     	;# 
   216     0015                     	;# 
   217     0016                     	;# 
   218     0017                     	;# 
   219     0018                     	;# 
   220     0019                     	;# 
   221     001A                     	;# 
   222     001B                     	;# 
   223     001B                     	;# 
   224     001C                     	;# 
   225     001D                     	;# 
   226     001E                     	;# 
   227     001F                     	;# 
   228     0081                     	;# 
   229     0085                     	;# 
   230     0086                     	;# 
   231     0087                     	;# 
   232     0088                     	;# 
   233     0089                     	;# 
   234     008C                     	;# 
   235     008D                     	;# 
   236     008E                     	;# 
   237     0091                     	;# 
   238     0092                     	;# 
   239     0093                     	;# 
   240     0094                     	;# 
   241     0098                     	;# 
   242     0099                     	;# 
   243     009C                     	;# 
   244     009D                     	;# 
   245     009E                     	;# 
   246     009F                     	;# 
   247     010C                     	;# 
   248     010D                     	;# 
   249     010E                     	;# 
   250     010F                     	;# 
   251     018C                     	;# 
   252     018D                     	;# 
   253     0000                     	;# 
   254     0001                     	;# 
   255     0002                     	;# 
   256     0003                     	;# 
   257     0004                     	;# 
   258     0005                     	;# 
   259     0006                     	;# 
   260     0007                     	;# 
   261     0008                     	;# 
   262     0009                     	;# 
   263     000A                     	;# 
   264     000B                     	;# 
   265     000C                     	;# 
   266     000D                     	;# 
   267     000E                     	;# 
   268     000E                     	;# 
   269     000F                     	;# 
   270     0010                     	;# 
   271     0011                     	;# 
   272     0012                     	;# 
   273     0013                     	;# 
   274     0014                     	;# 
   275     0015                     	;# 
   276     0015                     	;# 
   277     0016                     	;# 
   278     0017                     	;# 
   279     0018                     	;# 
   280     0019                     	;# 
   281     001A                     	;# 
   282     001B                     	;# 
   283     001B                     	;# 
   284     001C                     	;# 
   285     001D                     	;# 
   286     001E                     	;# 
   287     001F                     	;# 
   288     0081                     	;# 
   289     0085                     	;# 
   290     0086                     	;# 
   291     0087                     	;# 
   292     0088                     	;# 
   293     0089                     	;# 
   294     008C                     	;# 
   295     008D                     	;# 
   296     008E                     	;# 
   297     0091                     	;# 
   298     0092                     	;# 
   299     0093                     	;# 
   300     0094                     	;# 
   301     0098                     	;# 
   302     0099                     	;# 
   303     009C                     	;# 
   304     009D                     	;# 
   305     009E                     	;# 
   306     009F                     	;# 
   307     010C                     	;# 
   308     010D                     	;# 
   309     010E                     	;# 
   310     010F                     	;# 
   311     018C                     	;# 
   312     018D                     	;# 
   313     0000                     	;# 
   314     0001                     	;# 
   315     0002                     	;# 
   316     0003                     	;# 
   317     0004                     	;# 
   318     0005                     	;# 
   319     0006                     	;# 
   320     0007                     	;# 
   321     0008                     	;# 
   322     0009                     	;# 
   323     000A                     	;# 
   324     000B                     	;# 
   325     000C                     	;# 
   326     000D                     	;# 
   327     000E                     	;# 
   328     000E                     	;# 
   329     000F                     	;# 
   330     0010                     	;# 
   331     0011                     	;# 
   332     0012                     	;# 
   333     0013                     	;# 
   334     0014                     	;# 
   335     0015                     	;# 
   336     0015                     	;# 
   337     0016                     	;# 
   338     0017                     	;# 
   339     0018                     	;# 
   340     0019                     	;# 
   341     001A                     	;# 
   342     001B                     	;# 
   343     001B                     	;# 
   344     001C                     	;# 
   345     001D                     	;# 
   346     001E                     	;# 
   347     001F                     	;# 
   348     0081                     	;# 
   349     0085                     	;# 
   350     0086                     	;# 
   351     0087                     	;# 
   352     0088                     	;# 
   353     0089                     	;# 
   354     008C                     	;# 
   355     008D                     	;# 
   356     008E                     	;# 
   357     0091                     	;# 
   358     0092                     	;# 
   359     0093                     	;# 
   360     0094                     	;# 
   361     0098                     	;# 
   362     0099                     	;# 
   363     009C                     	;# 
   364     009D                     	;# 
   365     009E                     	;# 
   366     009F                     	;# 
   367     010C                     	;# 
   368     010D                     	;# 
   369     010E                     	;# 
   370     010F                     	;# 
   371     018C                     	;# 
   372     018D                     	;# 
   373     0000                     	;# 
   374     0001                     	;# 
   375     0002                     	;# 
   376     0003                     	;# 
   377     0004                     	;# 
   378     0005                     	;# 
   379     0006                     	;# 
   380     0007                     	;# 
   381     0008                     	;# 
   382     0009                     	;# 
   383     000A                     	;# 
   384     000B                     	;# 
   385     000C                     	;# 
   386     000D                     	;# 
   387     000E                     	;# 
   388     000E                     	;# 
   389     000F                     	;# 
   390     0010                     	;# 
   391     0011                     	;# 
   392     0012                     	;# 
   393     0013                     	;# 
   394     0014                     	;# 
   395     0015                     	;# 
   396     0015                     	;# 
   397     0016                     	;# 
   398     0017                     	;# 
   399     0018                     	;# 
   400     0019                     	;# 
   401     001A                     	;# 
   402     001B                     	;# 
   403     001B                     	;# 
   404     001C                     	;# 
   405     001D                     	;# 
   406     001E                     	;# 
   407     001F                     	;# 
   408     0081                     	;# 
   409     0085                     	;# 
   410     0086                     	;# 
   411     0087                     	;# 
   412     0088                     	;# 
   413     0089                     	;# 
   414     008C                     	;# 
   415     008D                     	;# 
   416     008E                     	;# 
   417     0091                     	;# 
   418     0092                     	;# 
   419     0093                     	;# 
   420     0094                     	;# 
   421     0098                     	;# 
   422     0099                     	;# 
   423     009C                     	;# 
   424     009D                     	;# 
   425     009E                     	;# 
   426     009F                     	;# 
   427     010C                     	;# 
   428     010D                     	;# 
   429     010E                     	;# 
   430     010F                     	;# 
   431     018C                     	;# 
   432     018D                     	;# 
   433                           
   434                           	psect	idataCOMMON
   435     07FE                     __pidataCOMMON:
   436                           
   437                           ;initializer for read_matrix_keypad@once
   438     07FE  3401               	retlw	1
   439                           
   440                           	psect	idataBANK1
   441     0E99                     __pidataBANK1:
   442                           
   443                           ;initializer for main@F885
   444     0E99  3430               	retlw	48
   445     0E9A  3431               	retlw	49
   446     0E9B  3432               	retlw	50
   447     0E9C  3433               	retlw	51
   448     0E9D  3434               	retlw	52
   449     0E9E  3435               	retlw	53
   450     0E9F  3436               	retlw	54
   451     0EA0  3437               	retlw	55
   452     0EA1  3438               	retlw	56
   453     0EA2  3439               	retlw	57
   454                           
   455                           ;initializer for main@laps
   456     0EA3  3405               	retlw	5
   457     0EA4  3400               	retlw	0
   458                           
   459                           	psect	idataBANK3
   460     0FB0                     __pidataBANK3:
   461                           
   462                           ;initializer for main@F899
   463     0FB0  344C               	retlw	76
   464     0FB1  3434               	retlw	52
   465     0FB2  3420               	retlw	32
   466     0FB3  343A               	retlw	58
   467     0FB4  3420               	retlw	32
   468     0FB5  3420               	retlw	32
   469     0FB6  3420               	retlw	32
   470     0FB7  343A               	retlw	58
   471     0FB8  3420               	retlw	32
   472     0FB9  3420               	retlw	32
   473     0FBA  343A               	retlw	58
   474     0FBB  3420               	retlw	32
   475     0FBC  3420               	retlw	32
   476     0FBD  343A               	retlw	58
   477     0FBE  3420               	retlw	32
   478     0FBF  3420               	retlw	32
   479                           
   480                           ;initializer for main@F897
   481     0FC0  344C               	retlw	76
   482     0FC1  3433               	retlw	51
   483     0FC2  3420               	retlw	32
   484     0FC3  343A               	retlw	58
   485     0FC4  3420               	retlw	32
   486     0FC5  3420               	retlw	32
   487     0FC6  3420               	retlw	32
   488     0FC7  343A               	retlw	58
   489     0FC8  3420               	retlw	32
   490     0FC9  3420               	retlw	32
   491     0FCA  343A               	retlw	58
   492     0FCB  3420               	retlw	32
   493     0FCC  3420               	retlw	32
   494     0FCD  343A               	retlw	58
   495     0FCE  3420               	retlw	32
   496     0FCF  3420               	retlw	32
   497                           
   498                           ;initializer for main@F895
   499     0FD0  344C               	retlw	76
   500     0FD1  3432               	retlw	50
   501     0FD2  3420               	retlw	32
   502     0FD3  343A               	retlw	58
   503     0FD4  3420               	retlw	32
   504     0FD5  3420               	retlw	32
   505     0FD6  3420               	retlw	32
   506     0FD7  343A               	retlw	58
   507     0FD8  3420               	retlw	32
   508     0FD9  3420               	retlw	32
   509     0FDA  343A               	retlw	58
   510     0FDB  3420               	retlw	32
   511     0FDC  3420               	retlw	32
   512     0FDD  343A               	retlw	58
   513     0FDE  3420               	retlw	32
   514     0FDF  3420               	retlw	32
   515                           
   516                           ;initializer for main@F893
   517     0FE0  344C               	retlw	76
   518     0FE1  3431               	retlw	49
   519     0FE2  3420               	retlw	32
   520     0FE3  343A               	retlw	58
   521     0FE4  3420               	retlw	32
   522     0FE5  3420               	retlw	32
   523     0FE6  3420               	retlw	32
   524     0FE7  343A               	retlw	58
   525     0FE8  3420               	retlw	32
   526     0FE9  3420               	retlw	32
   527     0FEA  343A               	retlw	58
   528     0FEB  3420               	retlw	32
   529     0FEC  3420               	retlw	32
   530     0FED  343A               	retlw	58
   531     0FEE  3420               	retlw	32
   532     0FEF  3420               	retlw	32
   533                           
   534                           ;initializer for main@F891
   535     0FF0  344C               	retlw	76
   536     0FF1  3430               	retlw	48
   537     0FF2  3420               	retlw	32
   538     0FF3  343A               	retlw	58
   539     0FF4  3420               	retlw	32
   540     0FF5  3420               	retlw	32
   541     0FF6  3420               	retlw	32
   542     0FF7  343A               	retlw	58
   543     0FF8  3420               	retlw	32
   544     0FF9  3420               	retlw	32
   545     0FFA  343A               	retlw	58
   546     0FFB  3420               	retlw	32
   547     0FFC  3420               	retlw	32
   548     0FFD  343A               	retlw	58
   549     0FFE  3420               	retlw	32
   550     0FFF  3420               	retlw	32
   551     0008                     _PORTD	set	8
   552     0032                     _RB2	set	50
   553     0031                     _RB1	set	49
   554     0030                     _RB0	set	48
   555     0040                     _RD0	set	64
   556     0041                     _RD1	set	65
   557     0042                     _RD2	set	66
   558     0043                     _RD3	set	67
   559     0049                     _RE1	set	73
   560     004A                     _RE2	set	74
   561     0091                     _T2CKPS1	set	145
   562     0090                     _T2CKPS0	set	144
   563     0092                     _TMR2ON	set	146
   564     005F                     _GIE	set	95
   565     005E                     _PEIE	set	94
   566     0061                     _TMR2IF	set	97
   567     0086                     _TRISB	set	134
   568     0088                     _TRISD	set	136
   569     0092                     _PR2	set	146
   570     040F                     _nRBPU	set	1039
   571     0449                     _TRISE1	set	1097
   572     044A                     _TRISE2	set	1098
   573     0461                     _TMR2IE	set	1121
   574                           
   575                           	psect	strings
   576     071B                     __pstrings:
   577     071B                     stringtab:
   578     071B                     __stringtab:
   579                           
   580                           ;	String table - string pointers are 1 byte each
   581     071B  1BFF               	btfsc	btemp+1,7
   582     071C  2F25               	ljmp	stringcode
   583     071D  1383               	bcf	3,7
   584     071E  187F               	btfsc	btemp+1,0
   585     071F  1783               	bsf	3,7
   586     0720  0800               	movf	0,w
   587     0721  0A84               	incf	4,f
   588     0722  1903               	skipnz
   589     0723  0AFF               	incf	btemp+1,f
   590     0724  0008               	return
   591     0725                     stringcode:
   592     0725                     stringdir:
   593     0725  3007               	movlw	high stringdir
   594     0726  008A               	movwf	10
   595     0727  0804               	movf	4,w
   596     0728  0A84               	incf	4,f
   597     0729  0782               	addwf	2,f
   598     072A                     __stringbase:
   599     072A  3400               	retlw	0
   600     072B                     __end_of__stringtab:
   601     072B                     STR_3:
   602     072B  3420               	retlw	32	;' '
   603     072C  3420               	retlw	32	;' '
   604     072D  3420               	retlw	32	;' '
   605     072E  3420               	retlw	32	;' '
   606     072F  3420               	retlw	32	;' '
   607     0730  3420               	retlw	32	;' '
   608     0731  3420               	retlw	32	;' '
   609     0732  3420               	retlw	32	;' '
   610     0733  3420               	retlw	32	;' '
   611     0734  3420               	retlw	32	;' '
   612     0735  3420               	retlw	32	;' '
   613     0736  3420               	retlw	32	;' '
   614     0737  3420               	retlw	32	;' '
   615     0738  3420               	retlw	32	;' '
   616     0739  3420               	retlw	32	;' '
   617     073A  3420               	retlw	32	;' '
   618     073B  3400               	retlw	0
   619     073C                     STR_7:
   620     073C  3420               	retlw	32	;' '
   621     073D  3420               	retlw	32	;' '
   622     073E  3453               	retlw	83	;'S'
   623     073F  3474               	retlw	116	;'t'
   624     0740  346F               	retlw	111	;'o'
   625     0741  3472               	retlw	114	;'r'
   626     0742  3465               	retlw	101	;'e'
   627     0743  3464               	retlw	100	;'d'
   628     0744  3420               	retlw	32	;' '
   629     0745  344C               	retlw	76	;'L'
   630     0746  3461               	retlw	97	;'a'
   631     0747  3470               	retlw	112	;'p'
   632     0748  3473               	retlw	115	;'s'
   633     0749  3420               	retlw	32	;' '
   634     074A  3420               	retlw	32	;' '
   635     074B  3420               	retlw	32	;' '
   636     074C  3400               	retlw	0
   637     074D                     STR_6:
   638     074D  3453               	retlw	83	;'S'
   639     074E  3457               	retlw	87	;'W'
   640     074F  3420               	retlw	32	;' '
   641     0750  343A               	retlw	58	;':'
   642     0751  3420               	retlw	32	;' '
   643     0752  3420               	retlw	32	;' '
   644     0753  3420               	retlw	32	;' '
   645     0754  343A               	retlw	58	;':'
   646     0755  3420               	retlw	32	;' '
   647     0756  3420               	retlw	32	;' '
   648     0757  343A               	retlw	58	;':'
   649     0758  3420               	retlw	32	;' '
   650     0759  3420               	retlw	32	;' '
   651     075A  343A               	retlw	58	;':'
   652     075B  3420               	retlw	32	;' '
   653     075C  3420               	retlw	32	;' '
   654     075D  3400               	retlw	0
   655     075E                     STR_1:
   656     075E  3420               	retlw	32	;' '
   657     075F  3450               	retlw	80	;'P'
   658     0760  3472               	retlw	114	;'r'
   659     0761  3465               	retlw	101	;'e'
   660     0762  3473               	retlw	115	;'s'
   661     0763  3473               	retlw	115	;'s'
   662     0764  3420               	retlw	32	;' '
   663     0765  3453               	retlw	83	;'S'
   664     0766  3477               	retlw	119	;'w'
   665     0767  3469               	retlw	105	;'i'
   666     0768  3474               	retlw	116	;'t'
   667     0769  3463               	retlw	99	;'c'
   668     076A  3468               	retlw	104	;'h'
   669     076B  3420               	retlw	32	;' '
   670     076C  3431               	retlw	49	;'1'
   671     076D  3420               	retlw	32	;' '
   672     076E  3400               	retlw	0
   673     076F                     STR_2:
   674     076F  3453               	retlw	83	;'S'
   675     0770  3472               	retlw	114	;'r'
   676     0771  3461               	retlw	97	;'a'
   677     0772  3472               	retlw	114	;'r'
   678     0773  3474               	retlw	116	;'t'
   679     0774  3420               	retlw	32	;' '
   680     0775  3453               	retlw	83	;'S'
   681     0776  3474               	retlw	116	;'t'
   682     0777  346F               	retlw	111	;'o'
   683     0778  3470               	retlw	112	;'p'
   684     0779  3420               	retlw	32	;' '
   685     077A  3457               	retlw	87	;'W'
   686     077B  3461               	retlw	97	;'a'
   687     077C  3474               	retlw	116	;'t'
   688     077D  3463               	retlw	99	;'c'
   689     077E  3468               	retlw	104	;'h'
   690     077F  3400               	retlw	0
   691     073C                     
   692                           	psect	cinit
   693     000F                     start_initialization:	
   694                           ; #config settings
   695                           
   696     000F                     __initialization:
   697                           
   698                           ; Initialize objects allocated to BANK3
   699     000F  1783               	bsf	3,7	;select IRP bank2
   700     0010  30E0               	movlw	low (__pdataBANK3+80)
   701     0011  00FD               	movwf	btemp+-1
   702     0012  300F               	movlw	high __pidataBANK3
   703     0013  00FE               	movwf	btemp
   704     0014  30B0               	movlw	low __pidataBANK3
   705     0015  00FF               	movwf	btemp+1
   706     0016  3090               	movlw	low __pdataBANK3
   707     0017  0084               	movwf	4
   708     0018  120A  158A  26B6  120A  118A  	fcall	init_ram0
   709                           
   710                           ; Initialize objects allocated to BANK1
   711     001D  1383               	bcf	3,7	;select IRP bank0
   712     001E  30EE               	movlw	low (__pdataBANK1+12)
   713     001F  00FD               	movwf	btemp+-1
   714     0020  300E               	movlw	high __pidataBANK1
   715     0021  00FE               	movwf	btemp
   716     0022  3099               	movlw	low __pidataBANK1
   717     0023  00FF               	movwf	btemp+1
   718     0024  30E2               	movlw	low __pdataBANK1
   719     0025  0084               	movwf	4
   720     0026  120A  158A  26B6  120A  118A  	fcall	init_ram0
   721                           
   722                           ; Initialize objects allocated to COMMON
   723     002B  120A  118A  27FE  120A  118A  	fcall	__pidataCOMMON	;fetch initializer
   724     0030  00FA               	movwf	__pdataCOMMON& (0+127)
   725                           
   726                           ; Clear objects allocated to BANK1
   727     0031  30C8               	movlw	low __pbssBANK1
   728     0032  0084               	movwf	4
   729     0033  30E2               	movlw	low (__pbssBANK1+26)
   730     0034  120A  158A  2686  120A  118A  	fcall	clear_ram0
   731                           
   732                           ; Clear objects allocated to BANK0
   733     0039  01EB               	clrf	__pbssBANK0& (0+127)
   734     003A  01EC               	clrf	(__pbssBANK0+1)& (0+127)
   735     003B  01ED               	clrf	(__pbssBANK0+2)& (0+127)
   736                           
   737                           ; Clear objects allocated to COMMON
   738     003C  01F8               	clrf	__pbssCOMMON& (0+127)
   739     003D  01F9               	clrf	(__pbssCOMMON+1)& (0+127)
   740     003E                     end_of_initialization:	
   741                           ;End of C runtime variable initialization code
   742                           
   743     003E                     __end_of__initialization:
   744     003E  0183               	clrf	3
   745     003F  120A  118A  2842   	ljmp	_main	;jump to C main() function
   746                           
   747                           	psect	bssCOMMON
   748     0078                     __pbssCOMMON:
   749     0078                     _flag:
   750     0078                     	ds	2
   751                           
   752                           	psect	dataCOMMON
   753     007A                     __pdataCOMMON:
   754     007A                     read_matrix_keypad@once:
   755     007A                     	ds	1
   756                           
   757                           	psect	bssBANK0
   758     006B                     __pbssBANK0:
   759     006B                     main@sw1:
   760     006B                     	ds	2
   761     006D                     _csec:
   762     006D                     	ds	1
   763                           
   764                           	psect	bssBANK1
   765     00C8                     __pbssBANK1:
   766     00C8                     isr@count:
   767     00C8                     	ds	4
   768     00CC                     main@view_flag:
   769     00CC                     	ds	2
   770     00CE                     main@laps_count:
   771     00CE                     	ds	2
   772     00D0                     main@sw3:
   773     00D0                     	ds	2
   774     00D2                     main@sw2:
   775     00D2                     	ds	2
   776     00D4                     _dis_flag@main$F73:
   777     00D4                     	ds	2
   778     00D6                     _tmr_flag@main$F72:
   779     00D6                     	ds	2
   780     00D8                     _dis_flag:
   781     00D8                     	ds	2
   782     00DA                     _tmr_flag:
   783     00DA                     	ds	2
   784     00DC                     _sec:
   785     00DC                     	ds	2
   786     00DE                     _minute:
   787     00DE                     	ds	2
   788     00E0                     _hour:
   789     00E0                     	ds	2
   790                           
   791                           	psect	dataBANK1
   792     00E2                     __pdataBANK1:
   793     00E2                     main@F885:
   794     00E2                     	ds	10
   795     00EC                     main@laps:
   796     00EC                     	ds	2
   797                           
   798                           	psect	dataBANK3
   799     0190                     __pdataBANK3:
   800     0190                     main@F899:
   801     0190                     	ds	16
   802     01A0                     main@F897:
   803     01A0                     	ds	16
   804     01B0                     main@F895:
   805     01B0                     	ds	16
   806     01C0                     main@F893:
   807     01C0                     	ds	16
   808     01D0                     main@F891:
   809     01D0                     	ds	16
   810                           
   811                           	psect	inittext
   812     0EB2                     init_fetch0:	
   813                           ;	Called with low address in FSR and high address in W
   814                           
   815     0EB2  087E               	movf	btemp,w
   816     0EB3  008A               	movwf	10
   817     0EB4  087F               	movf	btemp+1,w
   818     0EB5  0082               	movwf	2
   819     0EB6                     init_ram0:	
   820                           ;Called with:
   821                           ;	high address of idata address in btemp 
   822                           ;	low address of idata address in btemp+1 
   823                           ;	low address of data in FSR
   824                           ;	high address + 1 of data in btemp-1
   825                           
   826     0EB6  120A  158A  26B2  120A  158A  	fcall	init_fetch0
   827     0EBB  0080               	movwf	0
   828     0EBC  0A84               	incf	4,f
   829     0EBD  0804               	movf	4,w
   830     0EBE  067D               	xorwf	btemp+-1,w
   831     0EBF  1903               	btfsc	3,2
   832     0EC0  3400               	retlw	0
   833     0EC1  0AFF               	incf	btemp+1,f
   834     0EC2  1903               	btfsc	3,2
   835     0EC3  0AFE               	incf	btemp,f
   836     0EC4  2EB6               	goto	init_ram0
   837                           
   838                           	psect	clrtext
   839     0E86                     clear_ram0:	
   840                           ;	Called with FSR containing the base address, and
   841                           ;	W with the last address+1
   842                           
   843     0E86  0064               	clrwdt	;clear the watchdog before getting into this loop
   844     0E87                     clrloop0:
   845     0E87  0180               	clrf	0	;clear RAM location pointed to by FSR
   846     0E88  0A84               	incf	4,f	;increment pointer
   847     0E89  0604               	xorwf	4,w	;XOR with final address
   848     0E8A  1903               	btfsc	3,2	;have we reached the end yet?
   849     0E8B  3400               	retlw	0	;all done for this memory range, return
   850     0E8C  0604               	xorwf	4,w	;XOR again to restore value
   851     0E8D  2E87               	goto	clrloop0	;do the next byte
   852                           
   853                           	psect	cstackBANK1
   854     00A0                     __pcstackBANK1:
   855     00A0                     main@L4:
   856                           
   857                           ; 16 bytes @ 0x0
   858     00A0                     	ds	16
   859     00B0                     main@watch:
   860                           
   861                           ; 10 bytes @ 0x10
   862     00B0                     	ds	10
   863     00BA                     main@cesec:
   864                           
   865                           ; 3 bytes @ 0x1A
   866     00BA                     	ds	3
   867     00BD                     main@secA:
   868                           
   869                           ; 3 bytes @ 0x1D
   870     00BD                     	ds	3
   871     00C0                     main@minA:
   872                           
   873                           ; 3 bytes @ 0x20
   874     00C0                     	ds	3
   875     00C3                     main@hourA:
   876                           
   877                           ; 3 bytes @ 0x23
   878     00C3                     	ds	3
   879     00C6                     main@key_copy:
   880                           
   881                           ; 2 bytes @ 0x26
   882     00C6                     	ds	2
   883                           
   884                           	psect	cstackCOMMON
   885     0070                     __pcstackCOMMON:
   886     0070                     ?_init_clcd:
   887     0070                     ?_init_timer2:	
   888                           ; 1 bytes @ 0x0
   889                           
   890     0070                     ?_read_matrix_keypad:	
   891                           ; 1 bytes @ 0x0
   892                           
   893     0070                     ?_isr:	
   894                           ; 1 bytes @ 0x0
   895                           
   896     0070                     ??_isr:	
   897                           ; 1 bytes @ 0x0
   898                           
   899     0070                     ?_init_config:	
   900                           ; 1 bytes @ 0x0
   901                           
   902     0070                     ?_main:	
   903                           ; 1 bytes @ 0x0
   904                           
   905     0070                     ?_init_display_controller:	
   906                           ; 1 bytes @ 0x0
   907                           
   908     0070                     ?_scan_keypad:	
   909                           ; 1 bytes @ 0x0
   910                           
   911                           
   912                           ; 1 bytes @ 0x0
   913     0070                     	ds	3
   914     0073                     ??_init_timer2:
   915     0073                     ?_clcd_copy:	
   916                           ; 1 bytes @ 0x3
   917                           
   918     0073                     ?_clcd_write:	
   919                           ; 1 bytes @ 0x3
   920                           
   921     0073                     ??_scan_keypad:	
   922                           ; 1 bytes @ 0x3
   923                           
   924     0073                     ?___awdiv:	
   925                           ; 1 bytes @ 0x3
   926                           
   927     0073                     ?___awmod:	
   928                           ; 2 bytes @ 0x3
   929                           
   930     0073                     ?___lwdiv:	
   931                           ; 2 bytes @ 0x3
   932                           
   933     0073                     ?___lwmod:	
   934                           ; 2 bytes @ 0x3
   935                           
   936     0073                     clcd_write@mode:	
   937                           ; 2 bytes @ 0x3
   938                           
   939     0073                     clcd_copy@hour:	
   940                           ; 1 bytes @ 0x3
   941                           
   942     0073                     scan_keypad@i:	
   943                           ; 1 bytes @ 0x3
   944                           
   945     0073                     ___awdiv@divisor:	
   946                           ; 2 bytes @ 0x3
   947                           
   948     0073                     ___awmod@divisor:	
   949                           ; 2 bytes @ 0x3
   950                           
   951     0073                     ___lwdiv@divisor:	
   952                           ; 2 bytes @ 0x3
   953                           
   954     0073                     ___lwmod@divisor:	
   955                           ; 2 bytes @ 0x3
   956                           
   957                           
   958                           ; 2 bytes @ 0x3
   959     0073                     	ds	1
   960     0074                     ??_clcd_write:
   961     0074                     clcd_copy@min:	
   962                           ; 1 bytes @ 0x4
   963                           
   964                           
   965                           ; 1 bytes @ 0x4
   966     0074                     	ds	1
   967     0075                     ??_read_matrix_keypad:
   968     0075                     clcd_copy@sec:	
   969                           ; 1 bytes @ 0x5
   970                           
   971     0075                     read_matrix_keypad@mode:	
   972                           ; 1 bytes @ 0x5
   973                           
   974     0075                     ___awdiv@dividend:	
   975                           ; 1 bytes @ 0x5
   976                           
   977     0075                     ___awmod@dividend:	
   978                           ; 2 bytes @ 0x5
   979                           
   980     0075                     ___lwdiv@dividend:	
   981                           ; 2 bytes @ 0x5
   982                           
   983     0075                     ___lwmod@dividend:	
   984                           ; 2 bytes @ 0x5
   985                           
   986                           
   987                           ; 2 bytes @ 0x5
   988     0075                     	ds	1
   989     0076                     clcd_write@byte:
   990     0076                     clcd_copy@csec:	
   991                           ; 1 bytes @ 0x6
   992                           
   993     0076                     read_matrix_keypad@key:	
   994                           ; 1 bytes @ 0x6
   995                           
   996                           
   997                           ; 1 bytes @ 0x6
   998     0076                     	ds	1
   999     0077                     ??_init_clcd:
  1000     0077                     ??_clcd_print:	
  1001                           ; 1 bytes @ 0x7
  1002                           
  1003     0077                     ??_init_config:	
  1004                           ; 1 bytes @ 0x7
  1005                           
  1006     0077                     ??___awdiv:	
  1007                           ; 1 bytes @ 0x7
  1008                           
  1009     0077                     ??___awmod:	
  1010                           ; 1 bytes @ 0x7
  1011                           
  1012     0077                     ??___lwdiv:	
  1013                           ; 1 bytes @ 0x7
  1014                           
  1015     0077                     ??___lwmod:	
  1016                           ; 1 bytes @ 0x7
  1017                           
  1018                           
  1019                           ; 1 bytes @ 0x7
  1020     0077                     	ds	1
  1021                           
  1022                           	psect	cstackBANK0
  1023     0020                     __pcstackBANK0:
  1024     0020                     ?_clcd_print:
  1025     0020                     ??_clcd_copy:	
  1026                           ; 1 bytes @ 0x0
  1027                           
  1028     0020                     ??_init_display_controller:	
  1029                           ; 1 bytes @ 0x0
  1030                           
  1031     0020                     ___awdiv@counter:	
  1032                           ; 1 bytes @ 0x0
  1033                           
  1034     0020                     ___awmod@counter:	
  1035                           ; 1 bytes @ 0x0
  1036                           
  1037     0020                     ___lwdiv@counter:	
  1038                           ; 1 bytes @ 0x0
  1039                           
  1040     0020                     ___lwmod@counter:	
  1041                           ; 1 bytes @ 0x0
  1042                           
  1043     0020                     clcd_print@str:	
  1044                           ; 1 bytes @ 0x0
  1045                           
  1046                           
  1047                           ; 2 bytes @ 0x0
  1048     0020                     	ds	1
  1049     0021                     ___awdiv@sign:
  1050     0021                     ___awmod@sign:	
  1051                           ; 1 bytes @ 0x1
  1052                           
  1053     0021                     ___lwdiv@quotient:	
  1054                           ; 1 bytes @ 0x1
  1055                           
  1056                           
  1057                           ; 2 bytes @ 0x1
  1058     0021                     	ds	1
  1059     0022                     clcd_print@addr:
  1060     0022                     clcd_copy@arr:	
  1061                           ; 1 bytes @ 0x2
  1062                           
  1063     0022                     ___awdiv@quotient:	
  1064                           ; 1 bytes @ 0x2
  1065                           
  1066                           
  1067                           ; 2 bytes @ 0x2
  1068     0022                     	ds	1
  1069     0023                     clcd_copy@i:
  1070                           
  1071                           ; 2 bytes @ 0x3
  1072     0023                     	ds	2
  1073     0025                     ??_main:
  1074                           
  1075                           ; 1 bytes @ 0x5
  1076     0025                     	ds	4
  1077     0029                     main@L0:
  1078                           
  1079                           ; 16 bytes @ 0x9
  1080     0029                     	ds	16
  1081     0039                     main@L1:
  1082                           
  1083                           ; 16 bytes @ 0x19
  1084     0039                     	ds	16
  1085     0049                     main@L2:
  1086                           
  1087                           ; 16 bytes @ 0x29
  1088     0049                     	ds	16
  1089     0059                     main@L3:
  1090                           
  1091                           ; 16 bytes @ 0x39
  1092     0059                     	ds	16
  1093     0069                     main@key:
  1094                           
  1095                           ; 2 bytes @ 0x49
  1096     0069                     	ds	2
  1097                           
  1098                           	psect	maintext
  1099     0042                     __pmaintext:	
  1100 ;;
  1101 ;;Main: autosize = 0, tempsize = 4, incstack = 0, save=0
  1102 ;;
  1103 ;; *************** function _main *****************
  1104 ;; Defined at:
  1105 ;;		line 43 in file "main.c"
  1106 ;; Parameters:    Size  Location     Type
  1107 ;;		None
  1108 ;; Auto vars:     Size  Location     Type
  1109 ;;  L4             16    0[BANK1 ] unsigned char [16]
  1110 ;;  L3             16   57[BANK0 ] unsigned char [16]
  1111 ;;  L2             16   41[BANK0 ] unsigned char [16]
  1112 ;;  L1             16   25[BANK0 ] unsigned char [16]
  1113 ;;  L0             16    9[BANK0 ] unsigned char [16]
  1114 ;;  watch          10   16[BANK1 ] unsigned char [10]
  1115 ;;  wait            4    0        unsigned long 
  1116 ;;  hourA           3   35[BANK1 ] unsigned char [3]
  1117 ;;  minA            3   32[BANK1 ] unsigned char [3]
  1118 ;;  secA            3   29[BANK1 ] unsigned char [3]
  1119 ;;  cesec           3   26[BANK1 ] unsigned char [3]
  1120 ;;  key_copy        2   38[BANK1 ] unsigned int 
  1121 ;;  key             2   73[BANK0 ] unsigned int 
  1122 ;; Return value:  Size  Location     Type
  1123 ;;                  1    wreg      void 
  1124 ;; Registers used:
  1125 ;;		wreg, fsr0l, fsr0h, status,2, status,0, btemp+1, pclath, cstack
  1126 ;; Tracked objects:
  1127 ;;		On entry : B00/0
  1128 ;;		On exit  : 0/0
  1129 ;;		Unchanged: 0/0
  1130 ;; Data sizes:     COMMON   BANK0   BANK1   BANK3   BANK2
  1131 ;;      Params:         0       0       0       0       0
  1132 ;;      Locals:         0      66      40       0       0
  1133 ;;      Temps:          0       4       0       0       0
  1134 ;;      Totals:         0      70      40       0       0
  1135 ;;Total ram usage:      110 bytes
  1136 ;; Hardware stack levels required when called: 5
  1137 ;; This function calls:
  1138 ;;		___awdiv
  1139 ;;		___awmod
  1140 ;;		___lwdiv
  1141 ;;		___lwmod
  1142 ;;		_clcd_copy
  1143 ;;		_clcd_print
  1144 ;;		_init_config
  1145 ;;		_init_timer2
  1146 ;;		_read_matrix_keypad
  1147 ;; This function is called by:
  1148 ;;		Startup code after reset
  1149 ;; This function uses a non-reentrant model
  1150 ;;
  1151                           
  1152     0042                     _main:	
  1153                           ;psect for function _main
  1154                           
  1155     0042                     l2329:	
  1156                           ;incstack = 0
  1157                           ; Regs used in _main: [wreg-fsr0h+status,2+status,0+btemp+1+pclath+cstack]
  1158                           
  1159                           
  1160                           ;main.c: 47:        hourA[0] = watch[hour / 10];
  1161     0042  120A  158A  267E  120A  118A  	fcall	_init_config
  1162                           
  1163                           ;main.c: 49: 
  1164     0047  120A  158A  26A5  120A  118A  	fcall	_init_timer2
  1165     004C                     l2331:
  1166     004C                     l2333:
  1167                           
  1168                           ;main.c: 51:         {;main.c: 52:            key_copy = key;;main.c: 53:            if(
      +                          key_copy == 1)
  1169     004C  3034               	movlw	(low ((STR_1-__stringbase)| (0+32768)))& (0+255)
  1170     004D  1283               	bcf	3,5	;RP0=0, select bank0
  1171     004E  1303               	bcf	3,6	;RP1=0, select bank0
  1172     004F  00A0               	movwf	clcd_print@str
  1173     0050  3080               	movlw	128
  1174     0051  00A1               	movwf	clcd_print@str+1
  1175     0052  3080               	movlw	128
  1176     0053  00A2               	movwf	clcd_print@addr
  1177     0054  120A  158A  26C5  120A  118A  	fcall	_clcd_print
  1178     0059                     l2335:
  1179                           
  1180                           ;main.c: 54:            {
  1181     0059  3045               	movlw	(low ((STR_2-__stringbase)| (0+32768)))& (0+255)
  1182     005A  1283               	bcf	3,5	;RP0=0, select bank0
  1183     005B  1303               	bcf	3,6	;RP1=0, select bank0
  1184     005C  00A0               	movwf	clcd_print@str
  1185     005D  3080               	movlw	128
  1186     005E  00A1               	movwf	clcd_print@str+1
  1187     005F  30C0               	movlw	192
  1188     0060  00A2               	movwf	clcd_print@addr
  1189     0061  120A  158A  26C5  120A  118A  	fcall	_clcd_print
  1190     0066                     l2337:
  1191                           
  1192                           ;main.c: 55:              TMR2ON = !sw1;
  1193     0066  30B0               	movlw	main@watch& (0+255)
  1194     0067  0084               	movwf	4
  1195     0068  30E2               	movlw	low main@F885
  1196     0069  1283               	bcf	3,5	;RP0=0, select bank0
  1197     006A  1303               	bcf	3,6	;RP1=0, select bank0
  1198     006B  00A5               	movwf	??_main
  1199     006C  0804               	movf	4,w
  1200     006D  00A6               	movwf	??_main+1
  1201     006E  300A               	movlw	10
  1202     006F  00A7               	movwf	??_main+2
  1203     0070                     u2650:
  1204     0070  0825               	movf	??_main,w
  1205     0071  0084               	movwf	4
  1206     0072  1383               	bcf	3,7	;select IRP bank1
  1207     0073  0800               	movf	0,w
  1208     0074  00A8               	movwf	??_main+3
  1209     0075  0AA5               	incf	??_main,f
  1210     0076  0826               	movf	??_main+1,w
  1211     0077  0084               	movwf	4
  1212     0078  0828               	movf	??_main+3,w
  1213     0079  0080               	movwf	0
  1214     007A  0AA6               	incf	??_main+1,f
  1215     007B  0BA7               	decfsz	??_main+2,f
  1216     007C  2870               	goto	u2650
  1217     007D                     l2339:
  1218                           
  1219                           ;main.c: 56:               sw1 = !sw1;;main.c: 57:               clcd_print("           
      +                               ",(0xC0 + 0));;main.c: 58:               if(sw1 == 0);main.c: 59:               {;m
      +                          ain.c: 60:                 view_flag = !view_flag;
  1220     007D  1683               	bsf	3,5	;RP0=1, select bank1
  1221     007E  1303               	bcf	3,6	;RP1=0, select bank1
  1222     007F  01BD               	clrf	(main@cesec^(0+128)+3)
  1223     0080                     l2341:
  1224                           
  1225                           ;main.c: 61:               }
  1226     0080  01C0               	clrf	(main@secA^(0+128)+3)
  1227     0081                     l2343:
  1228                           
  1229                           ;main.c: 62:            }
  1230     0081  01C3               	clrf	(main@minA^(0+128)+3)
  1231     0082                     l2345:
  1232                           
  1233                           ;main.c: 63:            if(key_copy == 2)
  1234     0082  01C6               	clrf	(main@hourA^(0+128)+3)
  1235     0083                     l2347:
  1236                           
  1237                           ;main.c: 64:            {
  1238     0083  3029               	movlw	main@L0& (0+255)
  1239     0084  0084               	movwf	4
  1240     0085  30D0               	movlw	low main@F891
  1241     0086  1283               	bcf	3,5	;RP0=0, select bank0
  1242     0087  1303               	bcf	3,6	;RP1=0, select bank0
  1243     0088  00A5               	movwf	??_main
  1244     0089  0804               	movf	4,w
  1245     008A  00A6               	movwf	??_main+1
  1246     008B  3010               	movlw	16
  1247     008C  00A7               	movwf	??_main+2
  1248     008D                     u2660:
  1249     008D  0825               	movf	??_main,w
  1250     008E  0084               	movwf	4
  1251     008F  1783               	bsf	3,7	;select IRP bank3
  1252     0090  0800               	movf	0,w
  1253     0091  00A8               	movwf	??_main+3
  1254     0092  0AA5               	incf	??_main,f
  1255     0093  0826               	movf	??_main+1,w
  1256     0094  0084               	movwf	4
  1257     0095  1383               	bcf	3,7	;select IRP bank0
  1258     0096  0828               	movf	??_main+3,w
  1259     0097  0080               	movwf	0
  1260     0098  0AA6               	incf	??_main+1,f
  1261     0099  0BA7               	decfsz	??_main+2,f
  1262     009A  288D               	goto	u2660
  1263     009B                     l2349:
  1264                           
  1265                           ;main.c: 65:               sw2 = !sw2;
  1266     009B  3039               	movlw	main@L1& (0+255)
  1267     009C  0084               	movwf	4
  1268     009D  30C0               	movlw	low main@F893
  1269     009E  00A5               	movwf	??_main
  1270     009F  0804               	movf	4,w
  1271     00A0  00A6               	movwf	??_main+1
  1272     00A1  3010               	movlw	16
  1273     00A2  00A7               	movwf	??_main+2
  1274     00A3                     u2670:
  1275     00A3  0825               	movf	??_main,w
  1276     00A4  0084               	movwf	4
  1277     00A5  1783               	bsf	3,7	;select IRP bank3
  1278     00A6  0800               	movf	0,w
  1279     00A7  00A8               	movwf	??_main+3
  1280     00A8  0AA5               	incf	??_main,f
  1281     00A9  0826               	movf	??_main+1,w
  1282     00AA  0084               	movwf	4
  1283     00AB  1383               	bcf	3,7	;select IRP bank0
  1284     00AC  0828               	movf	??_main+3,w
  1285     00AD  0080               	movwf	0
  1286     00AE  0AA6               	incf	??_main+1,f
  1287     00AF  0BA7               	decfsz	??_main+2,f
  1288     00B0  28A3               	goto	u2670
  1289     00B1                     l2351:
  1290                           
  1291                           ;main.c: 66:            }
  1292     00B1  3049               	movlw	main@L2& (0+255)
  1293     00B2  0084               	movwf	4
  1294     00B3  30B0               	movlw	low main@F895
  1295     00B4  00A5               	movwf	??_main
  1296     00B5  0804               	movf	4,w
  1297     00B6  00A6               	movwf	??_main+1
  1298     00B7  3010               	movlw	16
  1299     00B8  00A7               	movwf	??_main+2
  1300     00B9                     u2680:
  1301     00B9  0825               	movf	??_main,w
  1302     00BA  0084               	movwf	4
  1303     00BB  1783               	bsf	3,7	;select IRP bank3
  1304     00BC  0800               	movf	0,w
  1305     00BD  00A8               	movwf	??_main+3
  1306     00BE  0AA5               	incf	??_main,f
  1307     00BF  0826               	movf	??_main+1,w
  1308     00C0  0084               	movwf	4
  1309     00C1  1383               	bcf	3,7	;select IRP bank0
  1310     00C2  0828               	movf	??_main+3,w
  1311     00C3  0080               	movwf	0
  1312     00C4  0AA6               	incf	??_main+1,f
  1313     00C5  0BA7               	decfsz	??_main+2,f
  1314     00C6  28B9               	goto	u2680
  1315     00C7                     l2353:
  1316                           
  1317                           ;main.c: 67:            if((key_copy == 2) && (sw1 == 0))
  1318     00C7  3059               	movlw	main@L3& (0+255)
  1319     00C8  0084               	movwf	4
  1320     00C9  30A0               	movlw	low main@F897
  1321     00CA  00A5               	movwf	??_main
  1322     00CB  0804               	movf	4,w
  1323     00CC  00A6               	movwf	??_main+1
  1324     00CD  3010               	movlw	16
  1325     00CE  00A7               	movwf	??_main+2
  1326     00CF                     u2690:
  1327     00CF  0825               	movf	??_main,w
  1328     00D0  0084               	movwf	4
  1329     00D1  1783               	bsf	3,7	;select IRP bank3
  1330     00D2  0800               	movf	0,w
  1331     00D3  00A8               	movwf	??_main+3
  1332     00D4  0AA5               	incf	??_main,f
  1333     00D5  0826               	movf	??_main+1,w
  1334     00D6  0084               	movwf	4
  1335     00D7  1383               	bcf	3,7	;select IRP bank0
  1336     00D8  0828               	movf	??_main+3,w
  1337     00D9  0080               	movwf	0
  1338     00DA  0AA6               	incf	??_main+1,f
  1339     00DB  0BA7               	decfsz	??_main+2,f
  1340     00DC  28CF               	goto	u2690
  1341     00DD                     l2355:
  1342                           
  1343                           ;main.c: 68:            {
  1344     00DD  30A0               	movlw	main@L4& (0+255)
  1345     00DE  0084               	movwf	4
  1346     00DF  3090               	movlw	low main@F899
  1347     00E0  00A5               	movwf	??_main
  1348     00E1  0804               	movf	4,w
  1349     00E2  00A6               	movwf	??_main+1
  1350     00E3  3010               	movlw	16
  1351     00E4  00A7               	movwf	??_main+2
  1352     00E5                     u2700:
  1353     00E5  0825               	movf	??_main,w
  1354     00E6  0084               	movwf	4
  1355     00E7  1783               	bsf	3,7	;select IRP bank3
  1356     00E8  0800               	movf	0,w
  1357     00E9  00A8               	movwf	??_main+3
  1358     00EA  0AA5               	incf	??_main,f
  1359     00EB  0826               	movf	??_main+1,w
  1360     00EC  0084               	movwf	4
  1361     00ED  1383               	bcf	3,7	;select IRP bank1
  1362     00EE  0828               	movf	??_main+3,w
  1363     00EF  0080               	movwf	0
  1364     00F0  0AA6               	incf	??_main+1,f
  1365     00F1  0BA7               	decfsz	??_main+2,f
  1366     00F2  28E5               	goto	u2700
  1367     00F3                     l2357:
  1368                           
  1369                           ;main.c: 71:                TMR2ON = 0;;main.c: 73:                minute = 0;
  1370     00F3  3001               	movlw	1
  1371     00F4  120A  118A  27DB  120A  118A  	fcall	_read_matrix_keypad
  1372     00F9  1283               	bcf	3,5	;RP0=0, select bank0
  1373     00FA  1303               	bcf	3,6	;RP1=0, select bank0
  1374     00FB  00A5               	movwf	??_main
  1375     00FC  01A6               	clrf	??_main+1
  1376     00FD  0825               	movf	??_main,w
  1377     00FE  00E9               	movwf	main@key
  1378     00FF  0826               	movf	??_main+1,w
  1379     0100  00EA               	movwf	main@key+1
  1380     0101                     l2359:
  1381                           
  1382                           ;main.c: 75:                csec = 0;
  1383     0101  300A               	movlw	10
  1384     0102  00F3               	movwf	___awdiv@divisor
  1385     0103  3000               	movlw	0
  1386     0104  00F4               	movwf	___awdiv@divisor+1
  1387     0105  086D               	movf	_csec,w
  1388     0106  00A5               	movwf	??_main
  1389     0107  01A6               	clrf	??_main+1
  1390     0108  0825               	movf	??_main,w
  1391     0109  00F5               	movwf	___awdiv@dividend
  1392     010A  0826               	movf	??_main+1,w
  1393     010B  00F6               	movwf	___awdiv@dividend+1
  1394     010C  120A  118A  26B2  120A  118A  	fcall	___awdiv
  1395     0111  0873               	movf	?___awdiv,w
  1396     0112  3EB0               	addlw	(low (main@watch| 0))& (0+255)
  1397     0113  0084               	movwf	4
  1398     0114  1383               	bcf	3,7	;select IRP bank1
  1399     0115  0800               	movf	0,w
  1400     0116  1683               	bsf	3,5	;RP0=1, select bank1
  1401     0117  1303               	bcf	3,6	;RP1=0, select bank1
  1402     0118  00BA               	movwf	main@cesec^(0+128)
  1403     0119                     l2361:
  1404                           
  1405                           ;main.c: 76:                laps = 5;
  1406     0119  300A               	movlw	10
  1407     011A  00F3               	movwf	___awmod@divisor
  1408     011B  3000               	movlw	0
  1409     011C  00F4               	movwf	___awmod@divisor+1
  1410     011D  1283               	bcf	3,5	;RP0=0, select bank0
  1411     011E  1303               	bcf	3,6	;RP1=0, select bank0
  1412     011F  086D               	movf	_csec,w
  1413     0120  00A5               	movwf	??_main
  1414     0121  01A6               	clrf	??_main+1
  1415     0122  0825               	movf	??_main,w
  1416     0123  00F5               	movwf	___awmod@dividend
  1417     0124  0826               	movf	??_main+1,w
  1418     0125  00F6               	movwf	___awmod@dividend+1
  1419     0126  120A  118A  2780  120A  118A  	fcall	___awmod
  1420     012B  0873               	movf	?___awmod,w
  1421     012C  3EB0               	addlw	(low (main@watch| 0))& (0+255)
  1422     012D  0084               	movwf	4
  1423     012E  1383               	bcf	3,7	;select IRP bank1
  1424     012F  0800               	movf	0,w
  1425     0130  1683               	bsf	3,5	;RP0=1, select bank1
  1426     0131  1303               	bcf	3,6	;RP1=0, select bank1
  1427     0132  00BB               	movwf	(main@cesec^(0+128)+1)
  1428     0133                     l2363:
  1429                           
  1430                           ;main.c: 77:                view_flag = 0;
  1431     0133  300A               	movlw	10
  1432     0134  00F3               	movwf	___lwdiv@divisor
  1433     0135  3000               	movlw	0
  1434     0136  00F4               	movwf	___lwdiv@divisor+1
  1435     0137  085D               	movf	(_sec+1)^(0+128),w
  1436     0138  00F6               	movwf	___lwdiv@dividend+1
  1437     0139  085C               	movf	_sec^(0+128),w
  1438     013A  00F5               	movwf	___lwdiv@dividend
  1439     013B  120A  158A  276A  120A  118A  	fcall	___lwdiv
  1440     0140  0873               	movf	?___lwdiv,w
  1441     0141  3EB0               	addlw	(low (main@watch| 0))& (0+255)
  1442     0142  0084               	movwf	4
  1443     0143  1383               	bcf	3,7	;select IRP bank1
  1444     0144  0800               	movf	0,w
  1445     0145  1683               	bsf	3,5	;RP0=1, select bank1
  1446     0146  1303               	bcf	3,6	;RP1=0, select bank1
  1447     0147  00BD               	movwf	main@secA^(0+128)
  1448     0148                     l2365:
  1449                           
  1450                           ;main.c: 78:                laps_count = 0;
  1451     0148  300A               	movlw	10
  1452     0149  00F3               	movwf	___lwmod@divisor
  1453     014A  3000               	movlw	0
  1454     014B  00F4               	movwf	___lwmod@divisor+1
  1455     014C  085D               	movf	(_sec+1)^(0+128),w
  1456     014D  00F6               	movwf	___lwmod@dividend+1
  1457     014E  085C               	movf	_sec^(0+128),w
  1458     014F  00F5               	movwf	___lwmod@dividend
  1459     0150  120A  158A  272E  120A  118A  	fcall	___lwmod
  1460     0155  0873               	movf	?___lwmod,w
  1461     0156  3EB0               	addlw	(low (main@watch| 0))& (0+255)
  1462     0157  0084               	movwf	4
  1463     0158  1383               	bcf	3,7	;select IRP bank1
  1464     0159  0800               	movf	0,w
  1465     015A  1683               	bsf	3,5	;RP0=1, select bank1
  1466     015B  1303               	bcf	3,6	;RP1=0, select bank1
  1467     015C  00BE               	movwf	(main@secA^(0+128)+1)
  1468     015D                     l2367:
  1469                           
  1470                           ;main.c: 79:                clcd_print(" Press Switch 1 ",(0x80 + 0));
  1471     015D  300A               	movlw	10
  1472     015E  00F3               	movwf	___lwdiv@divisor
  1473     015F  3000               	movlw	0
  1474     0160  00F4               	movwf	___lwdiv@divisor+1
  1475     0161  085F               	movf	(_minute+1)^(0+128),w
  1476     0162  00F6               	movwf	___lwdiv@dividend+1
  1477     0163  085E               	movf	_minute^(0+128),w
  1478     0164  00F5               	movwf	___lwdiv@dividend
  1479     0165  120A  158A  276A  120A  118A  	fcall	___lwdiv
  1480     016A  0873               	movf	?___lwdiv,w
  1481     016B  3EB0               	addlw	(low (main@watch| 0))& (0+255)
  1482     016C  0084               	movwf	4
  1483     016D  1383               	bcf	3,7	;select IRP bank1
  1484     016E  0800               	movf	0,w
  1485     016F  1683               	bsf	3,5	;RP0=1, select bank1
  1486     0170  1303               	bcf	3,6	;RP1=0, select bank1
  1487     0171  00C0               	movwf	main@minA^(0+128)
  1488     0172                     l2369:
  1489                           
  1490                           ;main.c: 80:                clcd_print("Srart Stop Watch",(0xC0 + 0));
  1491     0172  300A               	movlw	10
  1492     0173  00F3               	movwf	___lwmod@divisor
  1493     0174  3000               	movlw	0
  1494     0175  00F4               	movwf	___lwmod@divisor+1
  1495     0176  085F               	movf	(_minute+1)^(0+128),w
  1496     0177  00F6               	movwf	___lwmod@dividend+1
  1497     0178  085E               	movf	_minute^(0+128),w
  1498     0179  00F5               	movwf	___lwmod@dividend
  1499     017A  120A  158A  272E  120A  118A  	fcall	___lwmod
  1500     017F  0873               	movf	?___lwmod,w
  1501     0180  3EB0               	addlw	(low (main@watch| 0))& (0+255)
  1502     0181  0084               	movwf	4
  1503     0182  1383               	bcf	3,7	;select IRP bank1
  1504     0183  0800               	movf	0,w
  1505     0184  1683               	bsf	3,5	;RP0=1, select bank1
  1506     0185  1303               	bcf	3,6	;RP1=0, select bank1
  1507     0186  00C1               	movwf	(main@minA^(0+128)+1)
  1508     0187                     l2371:
  1509                           
  1510                           ;main.c: 81:            }
  1511     0187  300A               	movlw	10
  1512     0188  00F3               	movwf	___lwdiv@divisor
  1513     0189  3000               	movlw	0
  1514     018A  00F4               	movwf	___lwdiv@divisor+1
  1515     018B  0861               	movf	(_hour+1)^(0+128),w
  1516     018C  00F6               	movwf	___lwdiv@dividend+1
  1517     018D  0860               	movf	_hour^(0+128),w
  1518     018E  00F5               	movwf	___lwdiv@dividend
  1519     018F  120A  158A  276A  120A  118A  	fcall	___lwdiv
  1520     0194  0873               	movf	?___lwdiv,w
  1521     0195  3EB0               	addlw	(low (main@watch| 0))& (0+255)
  1522     0196  0084               	movwf	4
  1523     0197  1383               	bcf	3,7	;select IRP bank1
  1524     0198  0800               	movf	0,w
  1525     0199  1683               	bsf	3,5	;RP0=1, select bank1
  1526     019A  1303               	bcf	3,6	;RP1=0, select bank1
  1527     019B  00C3               	movwf	main@hourA^(0+128)
  1528     019C                     l2373:
  1529                           
  1530                           ;main.c: 82:            if(key_copy == 3)
  1531     019C  300A               	movlw	10
  1532     019D  00F3               	movwf	___lwmod@divisor
  1533     019E  3000               	movlw	0
  1534     019F  00F4               	movwf	___lwmod@divisor+1
  1535     01A0  0861               	movf	(_hour+1)^(0+128),w
  1536     01A1  00F6               	movwf	___lwmod@dividend+1
  1537     01A2  0860               	movf	_hour^(0+128),w
  1538     01A3  00F5               	movwf	___lwmod@dividend
  1539     01A4  120A  158A  272E  120A  118A  	fcall	___lwmod
  1540     01A9  0873               	movf	?___lwmod,w
  1541     01AA  3EB0               	addlw	(low (main@watch| 0))& (0+255)
  1542     01AB  0084               	movwf	4
  1543     01AC  1383               	bcf	3,7	;select IRP bank1
  1544     01AD  0800               	movf	0,w
  1545     01AE  1683               	bsf	3,5	;RP0=1, select bank1
  1546     01AF  1303               	bcf	3,6	;RP1=0, select bank1
  1547     01B0  00C4               	movwf	(main@hourA^(0+128)+1)
  1548     01B1                     l2375:
  1549                           
  1550                           ;main.c: 84:                laps_count++;
  1551     01B1  1283               	bcf	3,5	;RP0=0, select bank0
  1552     01B2  1303               	bcf	3,6	;RP1=0, select bank0
  1553     01B3  0A69               	incf	main@key,w
  1554     01B4  046A               	iorwf	main@key+1,w
  1555     01B5  1903               	btfsc	3,2
  1556     01B6  29B8               	goto	u2711
  1557     01B7  29B9               	goto	u2710
  1558     01B8                     u2711:
  1559     01B8  2A92               	goto	l2415
  1560     01B9                     u2710:
  1561     01B9                     l2377:
  1562                           
  1563                           ;main.c: 85:            };main.c: 86:            if(key_copy == 4)
  1564     01B9  086A               	movf	main@key+1,w
  1565     01BA  1683               	bsf	3,5	;RP0=1, select bank1
  1566     01BB  1303               	bcf	3,6	;RP1=0, select bank1
  1567     01BC  00C7               	movwf	(main@key_copy+1)^(0+128)
  1568     01BD  1283               	bcf	3,5	;RP0=0, select bank0
  1569     01BE  1303               	bcf	3,6	;RP1=0, select bank0
  1570     01BF  0869               	movf	main@key,w
  1571     01C0  1683               	bsf	3,5	;RP0=1, select bank1
  1572     01C1  1303               	bcf	3,6	;RP1=0, select bank1
  1573     01C2  00C6               	movwf	main@key_copy^(0+128)
  1574     01C3                     l2379:
  1575                           
  1576                           ;main.c: 87:            {
  1577     01C3  0346               	decf	main@key_copy^(0+128),w
  1578     01C4  0447               	iorwf	(main@key_copy+1)^(0+128),w
  1579     01C5  1D03               	btfss	3,2
  1580     01C6  29C8               	goto	u2721
  1581     01C7  29C9               	goto	u2720
  1582     01C8                     u2721:
  1583     01C8  2A10               	goto	l92
  1584     01C9                     u2720:
  1585     01C9                     l2381:
  1586                           
  1587                           ;main.c: 88:                laps_count--;;main.c: 89:            }
  1588     01C9  1283               	bcf	3,5	;RP0=0, select bank0
  1589     01CA  1303               	bcf	3,6	;RP1=0, select bank0
  1590     01CB  086B               	movf	main@sw1,w
  1591     01CC  046C               	iorwf	main@sw1+1,w
  1592     01CD  1903               	btfsc	3,2
  1593     01CE  29D0               	goto	u2731
  1594     01CF  29D4               	goto	u2730
  1595     01D0                     u2731:
  1596     01D0  1283               	bcf	3,5	;RP0=0, select bank0
  1597     01D1  1303               	bcf	3,6	;RP1=0, select bank0
  1598     01D2  1512               	bsf	18,2	;volatile
  1599     01D3  29D7               	goto	u2744
  1600     01D4                     u2730:
  1601     01D4  1283               	bcf	3,5	;RP0=0, select bank0
  1602     01D5  1303               	bcf	3,6	;RP1=0, select bank0
  1603     01D6  1112               	bcf	18,2	;volatile
  1604     01D7                     u2744:
  1605                           
  1606                           ;main.c: 90:         }
  1607     01D7  086B               	movf	main@sw1,w
  1608     01D8  046C               	iorwf	main@sw1+1,w
  1609     01D9  1903               	btfsc	3,2
  1610     01DA  29DC               	goto	u2751
  1611     01DB  29DE               	goto	u2750
  1612     01DC                     u2751:
  1613     01DC  3001               	movlw	1
  1614     01DD  29DF               	goto	u2760
  1615     01DE                     u2750:
  1616     01DE  3000               	movlw	0
  1617     01DF                     u2760:
  1618     01DF  00A5               	movwf	??_main
  1619     01E0  01A6               	clrf	??_main+1
  1620     01E1  0825               	movf	??_main,w
  1621     01E2  00EB               	movwf	main@sw1
  1622     01E3  0826               	movf	??_main+1,w
  1623     01E4  00EC               	movwf	main@sw1+1
  1624     01E5                     l2383:
  1625                           
  1626                           ;main.c: 91: 
  1627     01E5  3001               	movlw	(low ((STR_3-__stringbase)| (0+32768)))& (0+255)
  1628     01E6  00A0               	movwf	clcd_print@str
  1629     01E7  3080               	movlw	128
  1630     01E8  00A1               	movwf	clcd_print@str+1
  1631     01E9  30C0               	movlw	192
  1632     01EA  00A2               	movwf	clcd_print@addr
  1633     01EB  120A  158A  26C5  120A  118A  	fcall	_clcd_print
  1634     01F0                     l2385:
  1635                           
  1636                           ;main.c: 92:        if(sw1 && (view_flag == 0))
  1637     01F0  1283               	bcf	3,5	;RP0=0, select bank0
  1638     01F1  1303               	bcf	3,6	;RP1=0, select bank0
  1639     01F2  086B               	movf	main@sw1,w
  1640     01F3  046C               	iorwf	main@sw1+1,w
  1641     01F4  1D03               	btfss	3,2
  1642     01F5  29F7               	goto	u2771
  1643     01F6  29F8               	goto	u2770
  1644     01F7                     u2771:
  1645     01F7  2A10               	goto	l92
  1646     01F8                     u2770:
  1647     01F8                     l2387:
  1648                           
  1649                           ;main.c: 93:        {;main.c: 94:            clcd_print("SW :   :  :  :  ",(0x80 + 0));
  1650     01F8  1683               	bsf	3,5	;RP0=1, select bank1
  1651     01F9  1303               	bcf	3,6	;RP1=0, select bank1
  1652     01FA  084C               	movf	main@view_flag^(0+128),w
  1653     01FB  044D               	iorwf	(main@view_flag+1)^(0+128),w
  1654     01FC  1903               	btfsc	3,2
  1655     01FD  29FF               	goto	u2781
  1656     01FE  2A01               	goto	u2780
  1657     01FF                     u2781:
  1658     01FF  3001               	movlw	1
  1659     0200  2A02               	goto	u2790
  1660     0201                     u2780:
  1661     0201  3000               	movlw	0
  1662     0202                     u2790:
  1663     0202  1283               	bcf	3,5	;RP0=0, select bank0
  1664     0203  1303               	bcf	3,6	;RP1=0, select bank0
  1665     0204  00A5               	movwf	??_main
  1666     0205  01A6               	clrf	??_main+1
  1667     0206  0825               	movf	??_main,w
  1668     0207  1683               	bsf	3,5	;RP0=1, select bank1
  1669     0208  1303               	bcf	3,6	;RP1=0, select bank1
  1670     0209  00CC               	movwf	main@view_flag^(0+128)
  1671     020A  1283               	bcf	3,5	;RP0=0, select bank0
  1672     020B  1303               	bcf	3,6	;RP1=0, select bank0
  1673     020C  0826               	movf	??_main+1,w
  1674     020D  1683               	bsf	3,5	;RP0=1, select bank1
  1675     020E  1303               	bcf	3,6	;RP1=0, select bank1
  1676     020F  00CD               	movwf	(main@view_flag+1)^(0+128)
  1677     0210                     l92:	
  1678                           ;main.c: 96:            clcd_print(secA,(0x80 + 11));
  1679                           
  1680                           
  1681                           ;main.c: 97:            clcd_print(minA,(0x80 + 8));
  1682     0210  3002               	movlw	2
  1683     0211  1683               	bsf	3,5	;RP0=1, select bank1
  1684     0212  1303               	bcf	3,6	;RP1=0, select bank1
  1685     0213  0646               	xorwf	main@key_copy^(0+128),w
  1686     0214  0447               	iorwf	(main@key_copy+1)^(0+128),w
  1687     0215  1D03               	btfss	3,2
  1688     0216  2A18               	goto	u2801
  1689     0217  2A19               	goto	u2800
  1690     0218                     u2801:
  1691     0218  2A2F               	goto	l94
  1692     0219                     u2800:
  1693     0219                     l2389:
  1694                           
  1695                           ;main.c: 98:            clcd_print(hourA,(0x80 + 5));;main.c: 99: 
  1696     0219  0852               	movf	main@sw2^(0+128),w
  1697     021A  0453               	iorwf	(main@sw2+1)^(0+128),w
  1698     021B  1903               	btfsc	3,2
  1699     021C  2A1E               	goto	u2811
  1700     021D  2A20               	goto	u2810
  1701     021E                     u2811:
  1702     021E  3001               	movlw	1
  1703     021F  2A21               	goto	u2820
  1704     0220                     u2810:
  1705     0220  3000               	movlw	0
  1706     0221                     u2820:
  1707     0221  1283               	bcf	3,5	;RP0=0, select bank0
  1708     0222  1303               	bcf	3,6	;RP1=0, select bank0
  1709     0223  00A5               	movwf	??_main
  1710     0224  01A6               	clrf	??_main+1
  1711     0225  0825               	movf	??_main,w
  1712     0226  1683               	bsf	3,5	;RP0=1, select bank1
  1713     0227  1303               	bcf	3,6	;RP1=0, select bank1
  1714     0228  00D2               	movwf	main@sw2^(0+128)
  1715     0229  1283               	bcf	3,5	;RP0=0, select bank0
  1716     022A  1303               	bcf	3,6	;RP1=0, select bank0
  1717     022B  0826               	movf	??_main+1,w
  1718     022C  1683               	bsf	3,5	;RP0=1, select bank1
  1719     022D  1303               	bcf	3,6	;RP1=0, select bank1
  1720     022E  00D3               	movwf	(main@sw2+1)^(0+128)
  1721     022F                     l94:	
  1722                           ;main.c: 100:        }
  1723                           
  1724                           
  1725                           ;main.c: 101:        if(sw1 && sw2)
  1726     022F  3002               	movlw	2
  1727     0230  0646               	xorwf	main@key_copy^(0+128),w
  1728     0231  0447               	iorwf	(main@key_copy+1)^(0+128),w
  1729     0232  1D03               	btfss	3,2
  1730     0233  2A35               	goto	u2831
  1731     0234  2A36               	goto	u2830
  1732     0235                     u2831:
  1733     0235  2A76               	goto	l2407
  1734     0236                     u2830:
  1735     0236                     l2391:
  1736     0236  1283               	bcf	3,5	;RP0=0, select bank0
  1737     0237  1303               	bcf	3,6	;RP1=0, select bank0
  1738     0238  086B               	movf	main@sw1,w
  1739     0239  046C               	iorwf	main@sw1+1,w
  1740     023A  1D03               	btfss	3,2
  1741     023B  2A3D               	goto	u2841
  1742     023C  2A3E               	goto	u2840
  1743     023D                     u2841:
  1744     023D  2A76               	goto	l2407
  1745     023E                     u2840:
  1746     023E                     l2393:
  1747                           
  1748                           ;main.c: 102:        {;main.c: 103:            clcd_print(cesec,(0xC0 + 14));
  1749     023E  01EB               	clrf	main@sw1
  1750     023F  01EC               	clrf	main@sw1+1
  1751                           
  1752                           ;main.c: 104:            clcd_print(secA,(0xC0 + 11));
  1753     0240  1683               	bsf	3,5	;RP0=1, select bank1
  1754     0241  1303               	bcf	3,6	;RP1=0, select bank1
  1755     0242  01D2               	clrf	main@sw2^(0+128)
  1756     0243  01D3               	clrf	(main@sw2+1)^(0+128)
  1757     0244                     l2395:
  1758                           
  1759                           ;main.c: 105:            clcd_print(minA,(0xC0 + 8));
  1760     0244  1283               	bcf	3,5	;RP0=0, select bank0
  1761     0245  1303               	bcf	3,6	;RP1=0, select bank0
  1762     0246  1112               	bcf	18,2	;volatile
  1763                           
  1764                           ;main.c: 106:            clcd_print(hourA,(0xC0 + 5));
  1765     0247  1683               	bsf	3,5	;RP0=1, select bank1
  1766     0248  1303               	bcf	3,6	;RP1=0, select bank1
  1767     0249  01E0               	clrf	_hour^(0+128)
  1768     024A  01E1               	clrf	(_hour+1)^(0+128)
  1769                           
  1770                           ;main.c: 107:            if(laps == 5)
  1771     024B  01DE               	clrf	_minute^(0+128)
  1772     024C  01DF               	clrf	(_minute+1)^(0+128)
  1773                           
  1774                           ;main.c: 108:            {
  1775     024D  01DC               	clrf	_sec^(0+128)
  1776     024E  01DD               	clrf	(_sec+1)^(0+128)
  1777                           
  1778                           ;main.c: 109:            clcd_copy(L0,hourA,minA,secA,cesec);
  1779     024F  1283               	bcf	3,5	;RP0=0, select bank0
  1780     0250  1303               	bcf	3,6	;RP1=0, select bank0
  1781     0251  01ED               	clrf	_csec
  1782     0252                     l2397:
  1783                           
  1784                           ;main.c: 110:            clcd_print(L0,(0xC0 + 0));
  1785     0252  3005               	movlw	5
  1786     0253  1683               	bsf	3,5	;RP0=1, select bank1
  1787     0254  1303               	bcf	3,6	;RP1=0, select bank1
  1788     0255  00EC               	movwf	main@laps^(0+128)
  1789     0256  3000               	movlw	0
  1790     0257  00ED               	movwf	(main@laps^(0+128)+1)
  1791     0258                     l2399:
  1792                           
  1793                           ;main.c: 111:            }
  1794     0258  01CC               	clrf	main@view_flag^(0+128)
  1795     0259  01CD               	clrf	(main@view_flag+1)^(0+128)
  1796     025A                     l2401:
  1797                           
  1798                           ;main.c: 112:            if(laps == 4)
  1799     025A  01CE               	clrf	main@laps_count^(0+128)
  1800     025B  01CF               	clrf	(main@laps_count+1)^(0+128)
  1801     025C                     l2403:
  1802                           
  1803                           ;main.c: 113:            {
  1804     025C  3034               	movlw	(low ((STR_1-__stringbase)| (0+32768)))& (0+255)
  1805     025D  1283               	bcf	3,5	;RP0=0, select bank0
  1806     025E  1303               	bcf	3,6	;RP1=0, select bank0
  1807     025F  00A0               	movwf	clcd_print@str
  1808     0260  3080               	movlw	128
  1809     0261  00A1               	movwf	clcd_print@str+1
  1810     0262  3080               	movlw	128
  1811     0263  00A2               	movwf	clcd_print@addr
  1812     0264  120A  158A  26C5  120A  118A  	fcall	_clcd_print
  1813     0269                     l2405:
  1814                           
  1815                           ;main.c: 114:            clcd_copy(L1,hourA,minA,secA,cesec);
  1816     0269  3045               	movlw	(low ((STR_2-__stringbase)| (0+32768)))& (0+255)
  1817     026A  1283               	bcf	3,5	;RP0=0, select bank0
  1818     026B  1303               	bcf	3,6	;RP1=0, select bank0
  1819     026C  00A0               	movwf	clcd_print@str
  1820     026D  3080               	movlw	128
  1821     026E  00A1               	movwf	clcd_print@str+1
  1822     026F  30C0               	movlw	192
  1823     0270  00A2               	movwf	clcd_print@addr
  1824     0271  120A  158A  26C5  120A  118A  	fcall	_clcd_print
  1825     0276                     l2407:
  1826                           
  1827                           ;main.c: 116:            }
  1828     0276  3003               	movlw	3
  1829     0277  1683               	bsf	3,5	;RP0=1, select bank1
  1830     0278  1303               	bcf	3,6	;RP1=0, select bank1
  1831     0279  0646               	xorwf	main@key_copy^(0+128),w
  1832     027A  0447               	iorwf	(main@key_copy+1)^(0+128),w
  1833     027B  1D03               	btfss	3,2
  1834     027C  2A7E               	goto	u2851
  1835     027D  2A7F               	goto	u2850
  1836     027E                     u2851:
  1837     027E  2A85               	goto	l2411
  1838     027F                     u2850:
  1839     027F                     l2409:
  1840                           
  1841                           ;main.c: 117:            if(laps == 3);main.c: 118:            {
  1842     027F  3001               	movlw	1
  1843     0280  07CE               	addwf	main@laps_count^(0+128),f
  1844     0281  1803               	skipnc
  1845     0282  0ACF               	incf	(main@laps_count+1)^(0+128),f
  1846     0283  3000               	movlw	0
  1847     0284  07CF               	addwf	(main@laps_count+1)^(0+128),f
  1848     0285                     l2411:
  1849                           
  1850                           ;main.c: 120:            clcd_print(L2,(0xC0 + 0));
  1851     0285  3004               	movlw	4
  1852     0286  0646               	xorwf	main@key_copy^(0+128),w
  1853     0287  0447               	iorwf	(main@key_copy+1)^(0+128),w
  1854     0288  1D03               	btfss	3,2
  1855     0289  2A8B               	goto	u2861
  1856     028A  2A8C               	goto	u2860
  1857     028B                     u2861:
  1858     028B  2A92               	goto	l2415
  1859     028C                     u2860:
  1860     028C                     l2413:
  1861                           
  1862                           ;main.c: 121:            };main.c: 122:            if(laps == 2)
  1863     028C  30FF               	movlw	255
  1864     028D  07CE               	addwf	main@laps_count^(0+128),f
  1865     028E  1803               	skipnc
  1866     028F  0ACF               	incf	(main@laps_count+1)^(0+128),f
  1867     0290  30FF               	movlw	255
  1868     0291  07CF               	addwf	(main@laps_count+1)^(0+128),f
  1869     0292                     l2415:
  1870                           
  1871                           ;main.c: 126:            }
  1872     0292  1283               	bcf	3,5	;RP0=0, select bank0
  1873     0293  086B               	movf	main@sw1,w
  1874     0294  046C               	iorwf	main@sw1+1,w
  1875     0295  1903               	btfsc	3,2
  1876     0296  2A98               	goto	u2871
  1877     0297  2A99               	goto	u2870
  1878     0298                     u2871:
  1879     0298  2AE2               	goto	l2421
  1880     0299                     u2870:
  1881     0299                     l2417:
  1882     0299  1683               	bsf	3,5	;RP0=1, select bank1
  1883     029A  1303               	bcf	3,6	;RP1=0, select bank1
  1884     029B  084C               	movf	main@view_flag^(0+128),w
  1885     029C  044D               	iorwf	(main@view_flag+1)^(0+128),w
  1886     029D  1D03               	btfss	3,2
  1887     029E  2AA0               	goto	u2881
  1888     029F  2AA1               	goto	u2880
  1889     02A0                     u2881:
  1890     02A0  2AE2               	goto	l2421
  1891     02A1                     u2880:
  1892     02A1                     l2419:
  1893                           
  1894                           ;main.c: 127:            if(laps == 1);main.c: 128:            {
  1895     02A1  3023               	movlw	(low ((STR_6-__stringbase)| (0+32768)))& (0+255)
  1896     02A2  1283               	bcf	3,5	;RP0=0, select bank0
  1897     02A3  1303               	bcf	3,6	;RP1=0, select bank0
  1898     02A4  00A0               	movwf	clcd_print@str
  1899     02A5  3080               	movlw	128
  1900     02A6  00A1               	movwf	clcd_print@str+1
  1901     02A7  3080               	movlw	128
  1902     02A8  00A2               	movwf	clcd_print@addr
  1903     02A9  120A  158A  26C5  120A  118A  	fcall	_clcd_print
  1904                           
  1905                           ;main.c: 129:            clcd_copy(L4,hourA,minA,secA,cesec);
  1906     02AE  30BA               	movlw	(low (main@cesec| 0))& (0+255)
  1907     02AF  1283               	bcf	3,5	;RP0=0, select bank0
  1908     02B0  1303               	bcf	3,6	;RP1=0, select bank0
  1909     02B1  00A0               	movwf	clcd_print@str
  1910     02B2  3000               	movlw	0
  1911     02B3  00A1               	movwf	clcd_print@str+1
  1912     02B4  308E               	movlw	142
  1913     02B5  00A2               	movwf	clcd_print@addr
  1914     02B6  120A  158A  26C5  120A  118A  	fcall	_clcd_print
  1915                           
  1916                           ;main.c: 130:            clcd_print(L4,(0xC0 + 0));
  1917     02BB  30BD               	movlw	(low (main@secA| 0))& (0+255)
  1918     02BC  1283               	bcf	3,5	;RP0=0, select bank0
  1919     02BD  1303               	bcf	3,6	;RP1=0, select bank0
  1920     02BE  00A0               	movwf	clcd_print@str
  1921     02BF  3000               	movlw	0
  1922     02C0  00A1               	movwf	clcd_print@str+1
  1923     02C1  308B               	movlw	139
  1924     02C2  00A2               	movwf	clcd_print@addr
  1925     02C3  120A  158A  26C5  120A  118A  	fcall	_clcd_print
  1926                           
  1927                           ;main.c: 131:            laps = 6;
  1928     02C8  30C0               	movlw	(low (main@minA| 0))& (0+255)
  1929     02C9  1283               	bcf	3,5	;RP0=0, select bank0
  1930     02CA  1303               	bcf	3,6	;RP1=0, select bank0
  1931     02CB  00A0               	movwf	clcd_print@str
  1932     02CC  3000               	movlw	0
  1933     02CD  00A1               	movwf	clcd_print@str+1
  1934     02CE  3088               	movlw	136
  1935     02CF  00A2               	movwf	clcd_print@addr
  1936     02D0  120A  158A  26C5  120A  118A  	fcall	_clcd_print
  1937                           
  1938                           ;main.c: 132:            }
  1939     02D5  30C3               	movlw	(low (main@hourA| 0))& (0+255)
  1940     02D6  1283               	bcf	3,5	;RP0=0, select bank0
  1941     02D7  1303               	bcf	3,6	;RP1=0, select bank0
  1942     02D8  00A0               	movwf	clcd_print@str
  1943     02D9  3000               	movlw	0
  1944     02DA  00A1               	movwf	clcd_print@str+1
  1945     02DB  3085               	movlw	133
  1946     02DC  00A2               	movwf	clcd_print@addr
  1947     02DD  120A  158A  26C5  120A  118A  	fcall	_clcd_print
  1948     02E2                     l2421:
  1949                           
  1950                           ;main.c: 135:        }
  1951     02E2  1283               	bcf	3,5	;RP0=0, select bank0
  1952     02E3  1303               	bcf	3,6	;RP1=0, select bank0
  1953     02E4  086B               	movf	main@sw1,w
  1954     02E5  046C               	iorwf	main@sw1+1,w
  1955     02E6  1903               	btfsc	3,2
  1956     02E7  2AE9               	goto	u2891
  1957     02E8  2AEA               	goto	u2890
  1958     02E9                     u2891:
  1959     02E9  2BE7               	goto	l2463
  1960     02EA                     u2890:
  1961     02EA                     l2423:
  1962     02EA  1683               	bsf	3,5	;RP0=1, select bank1
  1963     02EB  1303               	bcf	3,6	;RP1=0, select bank1
  1964     02EC  0852               	movf	main@sw2^(0+128),w
  1965     02ED  0453               	iorwf	(main@sw2+1)^(0+128),w
  1966     02EE  1903               	btfsc	3,2
  1967     02EF  2AF1               	goto	u2901
  1968     02F0  2AF2               	goto	u2900
  1969     02F1                     u2901:
  1970     02F1  2BE7               	goto	l2463
  1971     02F2                     u2900:
  1972     02F2                     l2425:
  1973                           
  1974                           ;main.c: 136:        if(view_flag);main.c: 137:        {
  1975     02F2  30BA               	movlw	(low (main@cesec| 0))& (0+255)
  1976     02F3  1283               	bcf	3,5	;RP0=0, select bank0
  1977     02F4  1303               	bcf	3,6	;RP1=0, select bank0
  1978     02F5  00A0               	movwf	clcd_print@str
  1979     02F6  3000               	movlw	0
  1980     02F7  00A1               	movwf	clcd_print@str+1
  1981     02F8  30CE               	movlw	206
  1982     02F9  00A2               	movwf	clcd_print@addr
  1983     02FA  120A  158A  26C5  120A  118A  	fcall	_clcd_print
  1984                           
  1985                           ;main.c: 138:          if(laps_count == 0)
  1986     02FF  30BD               	movlw	(low (main@secA| 0))& (0+255)
  1987     0300  1283               	bcf	3,5	;RP0=0, select bank0
  1988     0301  1303               	bcf	3,6	;RP1=0, select bank0
  1989     0302  00A0               	movwf	clcd_print@str
  1990     0303  3000               	movlw	0
  1991     0304  00A1               	movwf	clcd_print@str+1
  1992     0305  30CB               	movlw	203
  1993     0306  00A2               	movwf	clcd_print@addr
  1994     0307  120A  158A  26C5  120A  118A  	fcall	_clcd_print
  1995                           
  1996                           ;main.c: 139:          {
  1997     030C  30C0               	movlw	(low (main@minA| 0))& (0+255)
  1998     030D  1283               	bcf	3,5	;RP0=0, select bank0
  1999     030E  1303               	bcf	3,6	;RP1=0, select bank0
  2000     030F  00A0               	movwf	clcd_print@str
  2001     0310  3000               	movlw	0
  2002     0311  00A1               	movwf	clcd_print@str+1
  2003     0312  30C8               	movlw	200
  2004     0313  00A2               	movwf	clcd_print@addr
  2005     0314  120A  158A  26C5  120A  118A  	fcall	_clcd_print
  2006                           
  2007                           ;main.c: 140:              clcd_print("  Stored Laps   ",(0x80 + 0));
  2008     0319  30C3               	movlw	(low (main@hourA| 0))& (0+255)
  2009     031A  1283               	bcf	3,5	;RP0=0, select bank0
  2010     031B  1303               	bcf	3,6	;RP1=0, select bank0
  2011     031C  00A0               	movwf	clcd_print@str
  2012     031D  3000               	movlw	0
  2013     031E  00A1               	movwf	clcd_print@str+1
  2014     031F  30C5               	movlw	197
  2015     0320  00A2               	movwf	clcd_print@addr
  2016     0321  120A  158A  26C5  120A  118A  	fcall	_clcd_print
  2017     0326                     l2427:
  2018                           
  2019                           ;main.c: 141:              clcd_print(L0,(0xC0 + 0));
  2020     0326  3005               	movlw	5
  2021     0327  1683               	bsf	3,5	;RP0=1, select bank1
  2022     0328  1303               	bcf	3,6	;RP1=0, select bank1
  2023     0329  066C               	xorwf	main@laps^(0+128),w
  2024     032A  046D               	iorwf	(main@laps+1)^(0+128),w
  2025     032B  1D03               	btfss	3,2
  2026     032C  2B2E               	goto	u2911
  2027     032D  2B2F               	goto	u2910
  2028     032E                     u2911:
  2029     032E  2B4A               	goto	l2433
  2030     032F                     u2910:
  2031     032F                     l2429:
  2032                           
  2033                           ;main.c: 142:          };main.c: 143: 
  2034     032F  30C3               	movlw	(low (main@hourA| 0))& (0+255)
  2035     0330  00F3               	movwf	clcd_copy@hour
  2036     0331  30C0               	movlw	(low (main@minA| 0))& (0+255)
  2037     0332  00F4               	movwf	clcd_copy@min
  2038     0333  30BD               	movlw	(low (main@secA| 0))& (0+255)
  2039     0334  00F5               	movwf	clcd_copy@sec
  2040     0335  30BA               	movlw	(low (main@cesec| 0))& (0+255)
  2041     0336  00F6               	movwf	clcd_copy@csec
  2042     0337  3029               	movlw	(low (main@L0| 0))& (0+255)
  2043     0338  120A  118A  254A  120A  118A  	fcall	_clcd_copy
  2044     033D                     l2431:
  2045                           
  2046                           ;main.c: 144:          if(laps_count == 1)
  2047     033D  3029               	movlw	(low (main@L0| 0))& (0+255)
  2048     033E  1283               	bcf	3,5	;RP0=0, select bank0
  2049     033F  1303               	bcf	3,6	;RP1=0, select bank0
  2050     0340  00A0               	movwf	clcd_print@str
  2051     0341  3000               	movlw	0
  2052     0342  00A1               	movwf	clcd_print@str+1
  2053     0343  30C0               	movlw	192
  2054     0344  00A2               	movwf	clcd_print@addr
  2055     0345  120A  158A  26C5  120A  118A  	fcall	_clcd_print
  2056     034A                     l2433:
  2057                           
  2058                           ;main.c: 146:            clcd_print("  Stored Laps   ",(0x80 + 0));
  2059     034A  3004               	movlw	4
  2060     034B  1683               	bsf	3,5	;RP0=1, select bank1
  2061     034C  1303               	bcf	3,6	;RP1=0, select bank1
  2062     034D  066C               	xorwf	main@laps^(0+128),w
  2063     034E  046D               	iorwf	(main@laps+1)^(0+128),w
  2064     034F  1D03               	btfss	3,2
  2065     0350  2B52               	goto	u2921
  2066     0351  2B53               	goto	u2920
  2067     0352                     u2921:
  2068     0352  2B6E               	goto	l2439
  2069     0353                     u2920:
  2070     0353                     l2435:
  2071                           
  2072                           ;main.c: 147:            clcd_print(L1,(0xC0 + 0));;main.c: 148:          }
  2073     0353  30C3               	movlw	(low (main@hourA| 0))& (0+255)
  2074     0354  00F3               	movwf	clcd_copy@hour
  2075     0355  30C0               	movlw	(low (main@minA| 0))& (0+255)
  2076     0356  00F4               	movwf	clcd_copy@min
  2077     0357  30BD               	movlw	(low (main@secA| 0))& (0+255)
  2078     0358  00F5               	movwf	clcd_copy@sec
  2079     0359  30BA               	movlw	(low (main@cesec| 0))& (0+255)
  2080     035A  00F6               	movwf	clcd_copy@csec
  2081     035B  3039               	movlw	(low (main@L1| 0))& (0+255)
  2082     035C  120A  118A  254A  120A  118A  	fcall	_clcd_copy
  2083     0361                     l2437:
  2084                           
  2085                           ;main.c: 149: 
  2086     0361  3039               	movlw	(low (main@L1| 0))& (0+255)
  2087     0362  1283               	bcf	3,5	;RP0=0, select bank0
  2088     0363  1303               	bcf	3,6	;RP1=0, select bank0
  2089     0364  00A0               	movwf	clcd_print@str
  2090     0365  3000               	movlw	0
  2091     0366  00A1               	movwf	clcd_print@str+1
  2092     0367  30C0               	movlw	192
  2093     0368  00A2               	movwf	clcd_print@addr
  2094     0369  120A  158A  26C5  120A  118A  	fcall	_clcd_print
  2095     036E                     l2439:
  2096                           
  2097                           ;main.c: 151:          {
  2098     036E  3003               	movlw	3
  2099     036F  1683               	bsf	3,5	;RP0=1, select bank1
  2100     0370  1303               	bcf	3,6	;RP1=0, select bank1
  2101     0371  066C               	xorwf	main@laps^(0+128),w
  2102     0372  046D               	iorwf	(main@laps+1)^(0+128),w
  2103     0373  1D03               	btfss	3,2
  2104     0374  2B76               	goto	u2931
  2105     0375  2B77               	goto	u2930
  2106     0376                     u2931:
  2107     0376  2B92               	goto	l2445
  2108     0377                     u2930:
  2109     0377                     l2441:
  2110                           
  2111                           ;main.c: 152:             clcd_print("  Stored Laps   ",(0x80 + 0));;main.c: 153:       
      +                                clcd_print(L2,(0xC0 + 0));
  2112     0377  30C3               	movlw	(low (main@hourA| 0))& (0+255)
  2113     0378  00F3               	movwf	clcd_copy@hour
  2114     0379  30C0               	movlw	(low (main@minA| 0))& (0+255)
  2115     037A  00F4               	movwf	clcd_copy@min
  2116     037B  30BD               	movlw	(low (main@secA| 0))& (0+255)
  2117     037C  00F5               	movwf	clcd_copy@sec
  2118     037D  30BA               	movlw	(low (main@cesec| 0))& (0+255)
  2119     037E  00F6               	movwf	clcd_copy@csec
  2120     037F  3049               	movlw	(low (main@L2| 0))& (0+255)
  2121     0380  120A  118A  254A  120A  118A  	fcall	_clcd_copy
  2122     0385                     l2443:
  2123                           
  2124                           ;main.c: 154:          }
  2125     0385  3049               	movlw	(low (main@L2| 0))& (0+255)
  2126     0386  1283               	bcf	3,5	;RP0=0, select bank0
  2127     0387  1303               	bcf	3,6	;RP1=0, select bank0
  2128     0388  00A0               	movwf	clcd_print@str
  2129     0389  3000               	movlw	0
  2130     038A  00A1               	movwf	clcd_print@str+1
  2131     038B  30C0               	movlw	192
  2132     038C  00A2               	movwf	clcd_print@addr
  2133     038D  120A  158A  26C5  120A  118A  	fcall	_clcd_print
  2134     0392                     l2445:
  2135                           
  2136                           ;main.c: 156:          {
  2137     0392  3002               	movlw	2
  2138     0393  1683               	bsf	3,5	;RP0=1, select bank1
  2139     0394  1303               	bcf	3,6	;RP1=0, select bank1
  2140     0395  066C               	xorwf	main@laps^(0+128),w
  2141     0396  046D               	iorwf	(main@laps+1)^(0+128),w
  2142     0397  1D03               	btfss	3,2
  2143     0398  2B9A               	goto	u2941
  2144     0399  2B9B               	goto	u2940
  2145     039A                     u2941:
  2146     039A  2BB6               	goto	l2451
  2147     039B                     u2940:
  2148     039B                     l2447:
  2149                           
  2150                           ;main.c: 157:              clcd_print("  Stored Laps   ",(0x80 + 0));;main.c: 158:      
      +                                  clcd_print(L3,(0xC0 + 0));
  2151     039B  30C3               	movlw	(low (main@hourA| 0))& (0+255)
  2152     039C  00F3               	movwf	clcd_copy@hour
  2153     039D  30C0               	movlw	(low (main@minA| 0))& (0+255)
  2154     039E  00F4               	movwf	clcd_copy@min
  2155     039F  30BD               	movlw	(low (main@secA| 0))& (0+255)
  2156     03A0  00F5               	movwf	clcd_copy@sec
  2157     03A1  30BA               	movlw	(low (main@cesec| 0))& (0+255)
  2158     03A2  00F6               	movwf	clcd_copy@csec
  2159     03A3  3059               	movlw	(low (main@L3| 0))& (0+255)
  2160     03A4  120A  118A  254A  120A  118A  	fcall	_clcd_copy
  2161     03A9                     l2449:
  2162                           
  2163                           ;main.c: 159:          }
  2164     03A9  3059               	movlw	(low (main@L3| 0))& (0+255)
  2165     03AA  1283               	bcf	3,5	;RP0=0, select bank0
  2166     03AB  1303               	bcf	3,6	;RP1=0, select bank0
  2167     03AC  00A0               	movwf	clcd_print@str
  2168     03AD  3000               	movlw	0
  2169     03AE  00A1               	movwf	clcd_print@str+1
  2170     03AF  30C0               	movlw	192
  2171     03B0  00A2               	movwf	clcd_print@addr
  2172     03B1  120A  158A  26C5  120A  118A  	fcall	_clcd_print
  2173     03B6                     l2451:
  2174                           
  2175                           ;main.c: 161:          {
  2176     03B6  1683               	bsf	3,5	;RP0=1, select bank1
  2177     03B7  1303               	bcf	3,6	;RP1=0, select bank1
  2178     03B8  036C               	decf	main@laps^(0+128),w
  2179     03B9  046D               	iorwf	(main@laps+1)^(0+128),w
  2180     03BA  1D03               	btfss	3,2
  2181     03BB  2BBD               	goto	u2951
  2182     03BC  2BBE               	goto	u2950
  2183     03BD                     u2951:
  2184     03BD  2BDF               	goto	l2459
  2185     03BE                     u2950:
  2186     03BE                     l2453:
  2187                           
  2188                           ;main.c: 162:              clcd_print("  Stored Laps   ",(0x80 + 0));;main.c: 163:      
      +                                  clcd_print(L4,(0xC0 + 0));
  2189     03BE  30C3               	movlw	(low (main@hourA| 0))& (0+255)
  2190     03BF  00F3               	movwf	clcd_copy@hour
  2191     03C0  30C0               	movlw	(low (main@minA| 0))& (0+255)
  2192     03C1  00F4               	movwf	clcd_copy@min
  2193     03C2  30BD               	movlw	(low (main@secA| 0))& (0+255)
  2194     03C3  00F5               	movwf	clcd_copy@sec
  2195     03C4  30BA               	movlw	(low (main@cesec| 0))& (0+255)
  2196     03C5  00F6               	movwf	clcd_copy@csec
  2197     03C6  30A0               	movlw	(low (main@L4| 0))& (0+255)
  2198     03C7  120A  118A  254A  120A  118A  	fcall	_clcd_copy
  2199     03CC                     l2455:
  2200                           
  2201                           ;main.c: 164:          }
  2202     03CC  30A0               	movlw	(low (main@L4| 0))& (0+255)
  2203     03CD  1283               	bcf	3,5	;RP0=0, select bank0
  2204     03CE  1303               	bcf	3,6	;RP1=0, select bank0
  2205     03CF  00A0               	movwf	clcd_print@str
  2206     03D0  3000               	movlw	0
  2207     03D1  00A1               	movwf	clcd_print@str+1
  2208     03D2  30C0               	movlw	192
  2209     03D3  00A2               	movwf	clcd_print@addr
  2210     03D4  120A  158A  26C5  120A  118A  	fcall	_clcd_print
  2211     03D9                     l2457:
  2212                           
  2213                           ;main.c: 165:        }
  2214     03D9  3006               	movlw	6
  2215     03DA  1683               	bsf	3,5	;RP0=1, select bank1
  2216     03DB  1303               	bcf	3,6	;RP1=0, select bank1
  2217     03DC  00EC               	movwf	main@laps^(0+128)
  2218     03DD  3000               	movlw	0
  2219     03DE  00ED               	movwf	(main@laps^(0+128)+1)
  2220     03DF                     l2459:
  2221                           
  2222                           ;main.c: 167:     return;
  2223     03DF  01D2               	clrf	main@sw2^(0+128)
  2224     03E0  01D3               	clrf	(main@sw2+1)^(0+128)
  2225     03E1                     l2461:
  2226                           
  2227                           ;main.c: 168: }
  2228     03E1  30FF               	movlw	255
  2229     03E2  07EC               	addwf	main@laps^(0+128),f
  2230     03E3  1803               	skipnc
  2231     03E4  0AED               	incf	(main@laps+1)^(0+128),f
  2232     03E5  30FF               	movlw	255
  2233     03E6  07ED               	addwf	(main@laps+1)^(0+128),f
  2234     03E7                     l2463:
  2235     03E7  1683               	bsf	3,5	;RP0=1, select bank1
  2236     03E8  1303               	bcf	3,6	;RP1=0, select bank1
  2237     03E9  084C               	movf	main@view_flag^(0+128),w
  2238     03EA  044D               	iorwf	(main@view_flag+1)^(0+128),w
  2239     03EB  1903               	btfsc	3,2
  2240     03EC  2BEE               	goto	u2961
  2241     03ED  2BEF               	goto	u2960
  2242     03EE                     u2961:
  2243     03EE  28F3               	goto	l2357
  2244     03EF                     u2960:
  2245     03EF                     l2465:
  2246     03EF  084E               	movf	main@laps_count^(0+128),w
  2247     03F0  044F               	iorwf	(main@laps_count+1)^(0+128),w
  2248     03F1  1D03               	btfss	3,2
  2249     03F2  2BF4               	goto	u2971
  2250     03F3  2BF5               	goto	u2970
  2251     03F4                     u2971:
  2252     03F4  2C0F               	goto	l2469
  2253     03F5                     u2970:
  2254     03F5                     l2467:
  2255     03F5  3012               	movlw	(low ((STR_7-__stringbase)| (0+32768)))& (0+255)
  2256     03F6  1283               	bcf	3,5	;RP0=0, select bank0
  2257     03F7  1303               	bcf	3,6	;RP1=0, select bank0
  2258     03F8  00A0               	movwf	clcd_print@str
  2259     03F9  3080               	movlw	128
  2260     03FA  00A1               	movwf	clcd_print@str+1
  2261     03FB  3080               	movlw	128
  2262     03FC  00A2               	movwf	clcd_print@addr
  2263     03FD  120A  158A  26C5  120A  118A  	fcall	_clcd_print
  2264     0402  3029               	movlw	(low (main@L0| 0))& (0+255)
  2265     0403  1283               	bcf	3,5	;RP0=0, select bank0
  2266     0404  1303               	bcf	3,6	;RP1=0, select bank0
  2267     0405  00A0               	movwf	clcd_print@str
  2268     0406  3000               	movlw	0
  2269     0407  00A1               	movwf	clcd_print@str+1
  2270     0408  30C0               	movlw	192
  2271     0409  00A2               	movwf	clcd_print@addr
  2272     040A  120A  158A  26C5  120A  118A  	fcall	_clcd_print
  2273     040F                     l2469:
  2274     040F  1683               	bsf	3,5	;RP0=1, select bank1
  2275     0410  1303               	bcf	3,6	;RP1=0, select bank1
  2276     0411  034E               	decf	main@laps_count^(0+128),w
  2277     0412  044F               	iorwf	(main@laps_count+1)^(0+128),w
  2278     0413  1D03               	btfss	3,2
  2279     0414  2C16               	goto	u2981
  2280     0415  2C17               	goto	u2980
  2281     0416                     u2981:
  2282     0416  2C31               	goto	l2473
  2283     0417                     u2980:
  2284     0417                     l2471:
  2285     0417  3012               	movlw	(low ((STR_7-__stringbase)| (0+32768)))& (0+255)
  2286     0418  1283               	bcf	3,5	;RP0=0, select bank0
  2287     0419  1303               	bcf	3,6	;RP1=0, select bank0
  2288     041A  00A0               	movwf	clcd_print@str
  2289     041B  3080               	movlw	128
  2290     041C  00A1               	movwf	clcd_print@str+1
  2291     041D  3080               	movlw	128
  2292     041E  00A2               	movwf	clcd_print@addr
  2293     041F  120A  158A  26C5  120A  118A  	fcall	_clcd_print
  2294     0424  3039               	movlw	(low (main@L1| 0))& (0+255)
  2295     0425  1283               	bcf	3,5	;RP0=0, select bank0
  2296     0426  1303               	bcf	3,6	;RP1=0, select bank0
  2297     0427  00A0               	movwf	clcd_print@str
  2298     0428  3000               	movlw	0
  2299     0429  00A1               	movwf	clcd_print@str+1
  2300     042A  30C0               	movlw	192
  2301     042B  00A2               	movwf	clcd_print@addr
  2302     042C  120A  158A  26C5  120A  118A  	fcall	_clcd_print
  2303     0431                     l2473:
  2304     0431  3002               	movlw	2
  2305     0432  1683               	bsf	3,5	;RP0=1, select bank1
  2306     0433  1303               	bcf	3,6	;RP1=0, select bank1
  2307     0434  064E               	xorwf	main@laps_count^(0+128),w
  2308     0435  044F               	iorwf	(main@laps_count+1)^(0+128),w
  2309     0436  1D03               	btfss	3,2
  2310     0437  2C39               	goto	u2991
  2311     0438  2C3A               	goto	u2990
  2312     0439                     u2991:
  2313     0439  2C54               	goto	l2477
  2314     043A                     u2990:
  2315     043A                     l2475:
  2316     043A  3012               	movlw	(low ((STR_7-__stringbase)| (0+32768)))& (0+255)
  2317     043B  1283               	bcf	3,5	;RP0=0, select bank0
  2318     043C  1303               	bcf	3,6	;RP1=0, select bank0
  2319     043D  00A0               	movwf	clcd_print@str
  2320     043E  3080               	movlw	128
  2321     043F  00A1               	movwf	clcd_print@str+1
  2322     0440  3080               	movlw	128
  2323     0441  00A2               	movwf	clcd_print@addr
  2324     0442  120A  158A  26C5  120A  118A  	fcall	_clcd_print
  2325     0447  3049               	movlw	(low (main@L2| 0))& (0+255)
  2326     0448  1283               	bcf	3,5	;RP0=0, select bank0
  2327     0449  1303               	bcf	3,6	;RP1=0, select bank0
  2328     044A  00A0               	movwf	clcd_print@str
  2329     044B  3000               	movlw	0
  2330     044C  00A1               	movwf	clcd_print@str+1
  2331     044D  30C0               	movlw	192
  2332     044E  00A2               	movwf	clcd_print@addr
  2333     044F  120A  158A  26C5  120A  118A  	fcall	_clcd_print
  2334     0454                     l2477:
  2335     0454  3003               	movlw	3
  2336     0455  1683               	bsf	3,5	;RP0=1, select bank1
  2337     0456  1303               	bcf	3,6	;RP1=0, select bank1
  2338     0457  064E               	xorwf	main@laps_count^(0+128),w
  2339     0458  044F               	iorwf	(main@laps_count+1)^(0+128),w
  2340     0459  1D03               	btfss	3,2
  2341     045A  2C5C               	goto	u3001
  2342     045B  2C5D               	goto	u3000
  2343     045C                     u3001:
  2344     045C  2C77               	goto	l2481
  2345     045D                     u3000:
  2346     045D                     l2479:
  2347     045D  3012               	movlw	(low ((STR_7-__stringbase)| (0+32768)))& (0+255)
  2348     045E  1283               	bcf	3,5	;RP0=0, select bank0
  2349     045F  1303               	bcf	3,6	;RP1=0, select bank0
  2350     0460  00A0               	movwf	clcd_print@str
  2351     0461  3080               	movlw	128
  2352     0462  00A1               	movwf	clcd_print@str+1
  2353     0463  3080               	movlw	128
  2354     0464  00A2               	movwf	clcd_print@addr
  2355     0465  120A  158A  26C5  120A  118A  	fcall	_clcd_print
  2356     046A  3059               	movlw	(low (main@L3| 0))& (0+255)
  2357     046B  1283               	bcf	3,5	;RP0=0, select bank0
  2358     046C  1303               	bcf	3,6	;RP1=0, select bank0
  2359     046D  00A0               	movwf	clcd_print@str
  2360     046E  3000               	movlw	0
  2361     046F  00A1               	movwf	clcd_print@str+1
  2362     0470  30C0               	movlw	192
  2363     0471  00A2               	movwf	clcd_print@addr
  2364     0472  120A  158A  26C5  120A  118A  	fcall	_clcd_print
  2365     0477                     l2481:
  2366     0477  3004               	movlw	4
  2367     0478  1683               	bsf	3,5	;RP0=1, select bank1
  2368     0479  1303               	bcf	3,6	;RP1=0, select bank1
  2369     047A  064E               	xorwf	main@laps_count^(0+128),w
  2370     047B  044F               	iorwf	(main@laps_count+1)^(0+128),w
  2371     047C  1D03               	btfss	3,2
  2372     047D  2C7F               	goto	u3011
  2373     047E  2C80               	goto	u3010
  2374     047F                     u3011:
  2375     047F  28F3               	goto	l2357
  2376     0480                     u3010:
  2377     0480                     l2483:
  2378     0480  3012               	movlw	(low ((STR_7-__stringbase)| (0+32768)))& (0+255)
  2379     0481  1283               	bcf	3,5	;RP0=0, select bank0
  2380     0482  1303               	bcf	3,6	;RP1=0, select bank0
  2381     0483  00A0               	movwf	clcd_print@str
  2382     0484  3080               	movlw	128
  2383     0485  00A1               	movwf	clcd_print@str+1
  2384     0486  3080               	movlw	128
  2385     0487  00A2               	movwf	clcd_print@addr
  2386     0488  120A  158A  26C5  120A  118A  	fcall	_clcd_print
  2387     048D  30A0               	movlw	(low (main@L4| 0))& (0+255)
  2388     048E  1283               	bcf	3,5	;RP0=0, select bank0
  2389     048F  1303               	bcf	3,6	;RP1=0, select bank0
  2390     0490  00A0               	movwf	clcd_print@str
  2391     0491  3000               	movlw	0
  2392     0492  00A1               	movwf	clcd_print@str+1
  2393     0493  30C0               	movlw	192
  2394     0494  00A2               	movwf	clcd_print@addr
  2395     0495  120A  158A  26C5  120A  118A  	fcall	_clcd_print
  2396     049A  28F3               	goto	l2357
  2397     049B  120A  118A  280C   	ljmp	start
  2398     049E                     __end_of_main:
  2399                           
  2400                           	psect	text1
  2401     07DB                     __ptext1:	
  2402 ;; *************** function _read_matrix_keypad *****************
  2403 ;; Defined at:
  2404 ;;		line 111 in file "matrix_keypad.c"
  2405 ;; Parameters:    Size  Location     Type
  2406 ;;  mode            1    wreg     unsigned char 
  2407 ;; Auto vars:     Size  Location     Type
  2408 ;;  mode            1    5[COMMON] unsigned char 
  2409 ;;  key             1    6[COMMON] unsigned char 
  2410 ;; Return value:  Size  Location     Type
  2411 ;;                  1    wreg      unsigned char 
  2412 ;; Registers used:
  2413 ;;		wreg, status,2, status,0, pclath, cstack
  2414 ;; Tracked objects:
  2415 ;;		On entry : 0/0
  2416 ;;		On exit  : 0/0
  2417 ;;		Unchanged: 0/0
  2418 ;; Data sizes:     COMMON   BANK0   BANK1   BANK3   BANK2
  2419 ;;      Params:         0       0       0       0       0
  2420 ;;      Locals:         2       0       0       0       0
  2421 ;;      Temps:          0       0       0       0       0
  2422 ;;      Totals:         2       0       0       0       0
  2423 ;;Total ram usage:        2 bytes
  2424 ;; Hardware stack levels used: 1
  2425 ;; Hardware stack levels required when called: 2
  2426 ;; This function calls:
  2427 ;;		_scan_keypad
  2428 ;; This function is called by:
  2429 ;;		_main
  2430 ;; This function uses a non-reentrant model
  2431 ;;
  2432                           
  2433     07DB                     _read_matrix_keypad:	
  2434                           ;psect for function _read_matrix_keypad
  2435                           
  2436                           
  2437                           ;incstack = 0
  2438                           ; Regs used in _read_matrix_keypad: [wreg+status,2+status,0+pclath+cstack]
  2439                           ;read_matrix_keypad@mode stored from wreg
  2440     07DB  00F5               	movwf	read_matrix_keypad@mode
  2441     07DC                     l2117:
  2442                           
  2443                           ;matrix_keypad.c: 111: unsigned char read_matrix_keypad(unsigned char mode);matrix_keypa
      +                          d.c: 112: {;matrix_keypad.c: 113:     static unsigned char once = 1;;matrix_keypad.c: 11
      +                          4:     unsigned char key;;matrix_keypad.c: 116:     key = scan_keypad();
  2444     07DC  120A  118A  249E  120A  118A  	fcall	_scan_keypad
  2445     07E1  00F6               	movwf	read_matrix_keypad@key
  2446     07E2                     l2119:
  2447                           
  2448                           ;matrix_keypad.c: 118:     if (mode == 0)
  2449     07E2  0875               	movf	read_matrix_keypad@mode,w
  2450     07E3  1D03               	btfss	3,2
  2451     07E4  2FE6               	goto	u2251
  2452     07E5  2FE7               	goto	u2250
  2453     07E6                     u2251:
  2454     07E6  2FE9               	goto	l2127
  2455     07E7                     u2250:
  2456     07E7                     l2121:
  2457                           
  2458                           ;matrix_keypad.c: 119:     {;matrix_keypad.c: 120:         return key;
  2459     07E7  0876               	movf	read_matrix_keypad@key,w
  2460     07E8  2FFD               	goto	l233
  2461     07E9                     l2127:
  2462                           
  2463                           ;matrix_keypad.c: 123:     {;matrix_keypad.c: 124:         if ((key != 0xFF) && once)
  2464     07E9  0A76               	incf	read_matrix_keypad@key,w
  2465     07EA  1903               	btfsc	3,2
  2466     07EB  2FED               	goto	u2261
  2467     07EC  2FEE               	goto	u2260
  2468     07ED                     u2261:
  2469     07ED  2FF5               	goto	l2139
  2470     07EE                     u2260:
  2471     07EE                     l2129:
  2472     07EE  087A               	movf	read_matrix_keypad@once,w
  2473     07EF  1903               	btfsc	3,2
  2474     07F0  2FF2               	goto	u2271
  2475     07F1  2FF3               	goto	u2270
  2476     07F2                     u2271:
  2477     07F2  2FF5               	goto	l2139
  2478     07F3                     u2270:
  2479     07F3                     l2131:
  2480                           
  2481                           ;matrix_keypad.c: 125:         {;matrix_keypad.c: 126:             once = 0;
  2482     07F3  01FA               	clrf	read_matrix_keypad@once
  2483     07F4  2FE7               	goto	l2121
  2484     07F5                     l2139:
  2485     07F5  0A76               	incf	read_matrix_keypad@key,w
  2486     07F6  1D03               	btfss	3,2
  2487     07F7  2FF9               	goto	u2281
  2488     07F8  2FFA               	goto	u2280
  2489     07F9                     u2281:
  2490     07F9  2FFC               	goto	l2143
  2491     07FA                     u2280:
  2492     07FA                     l2141:
  2493                           
  2494                           ;matrix_keypad.c: 131:         {;matrix_keypad.c: 132:             once = 1;
  2495     07FA  01FA               	clrf	read_matrix_keypad@once
  2496     07FB  0AFA               	incf	read_matrix_keypad@once,f
  2497     07FC                     l2143:
  2498                           
  2499                           ;matrix_keypad.c: 136:     return 0xFF;
  2500     07FC  30FF               	movlw	255
  2501     07FD                     l233:
  2502     07FD  0008               	return
  2503     07FE                     __end_of_read_matrix_keypad:
  2504                           
  2505                           	psect	text2
  2506     049E                     __ptext2:	
  2507 ;; *************** function _scan_keypad *****************
  2508 ;; Defined at:
  2509 ;;		line 24 in file "matrix_keypad.c"
  2510 ;; Parameters:    Size  Location     Type
  2511 ;;		None
  2512 ;; Auto vars:     Size  Location     Type
  2513 ;;  i               2    3[COMMON] int 
  2514 ;; Return value:  Size  Location     Type
  2515 ;;                  1    wreg      unsigned char 
  2516 ;; Registers used:
  2517 ;;		wreg, status,2, status,0
  2518 ;; Tracked objects:
  2519 ;;		On entry : 0/0
  2520 ;;		On exit  : 0/0
  2521 ;;		Unchanged: 0/0
  2522 ;; Data sizes:     COMMON   BANK0   BANK1   BANK3   BANK2
  2523 ;;      Params:         0       0       0       0       0
  2524 ;;      Locals:         2       0       0       0       0
  2525 ;;      Temps:          0       0       0       0       0
  2526 ;;      Totals:         2       0       0       0       0
  2527 ;;Total ram usage:        2 bytes
  2528 ;; Hardware stack levels used: 1
  2529 ;; Hardware stack levels required when called: 1
  2530 ;; This function calls:
  2531 ;;		Nothing
  2532 ;; This function is called by:
  2533 ;;		_read_matrix_keypad
  2534 ;; This function uses a non-reentrant model
  2535 ;;
  2536                           
  2537     049E                     _scan_keypad:	
  2538                           ;psect for function _scan_keypad
  2539                           
  2540     049E                     l2009:	
  2541                           ;incstack = 0
  2542                           ; Regs used in _scan_keypad: [wreg+status,2+status,0]
  2543                           
  2544                           
  2545                           ;matrix_keypad.c: 26:     int i;;matrix_keypad.c: 28:     RD3 = 0;
  2546     049E  1283               	bcf	3,5	;RP0=0, select bank0
  2547     049F  1303               	bcf	3,6	;RP1=0, select bank0
  2548     04A0  1188               	bcf	8,3	;volatile
  2549                           
  2550                           ;matrix_keypad.c: 29:     RD2 = 1;
  2551     04A1  1508               	bsf	8,2	;volatile
  2552                           
  2553                           ;matrix_keypad.c: 30:     RD1 = 1;
  2554     04A2  1488               	bsf	8,1	;volatile
  2555                           
  2556                           ;matrix_keypad.c: 31:     RD0 = 1;
  2557     04A3  1408               	bsf	8,0	;volatile
  2558     04A4                     l2011:
  2559                           
  2560                           ;matrix_keypad.c: 33:     for (i = 100; i--; );
  2561     04A4  3064               	movlw	100
  2562     04A5  00F3               	movwf	scan_keypad@i
  2563     04A6  3000               	movlw	0
  2564     04A7  00F4               	movwf	scan_keypad@i+1
  2565     04A8                     l2013:
  2566     04A8  30FF               	movlw	255
  2567     04A9  07F3               	addwf	scan_keypad@i,f
  2568     04AA  1803               	skipnc
  2569     04AB  0AF4               	incf	scan_keypad@i+1,f
  2570     04AC  30FF               	movlw	255
  2571     04AD  07F4               	addwf	scan_keypad@i+1,f
  2572     04AE  0A73               	incf	scan_keypad@i,w
  2573     04AF  1D03               	skipz
  2574     04B0  2CB5               	goto	u2081
  2575     04B1  0A74               	incf	scan_keypad@i+1,w
  2576     04B2  1D03               	btfss	3,2
  2577     04B3  2CB5               	goto	u2081
  2578     04B4  2CB6               	goto	u2080
  2579     04B5                     u2081:
  2580     04B5  2CA8               	goto	l2013
  2581     04B6                     u2080:
  2582     04B6                     l197:
  2583                           
  2584                           ;matrix_keypad.c: 35:     if (RB0 == 0)
  2585     04B6  1283               	bcf	3,5	;RP0=0, select bank0
  2586     04B7  1303               	bcf	3,6	;RP1=0, select bank0
  2587     04B8  1806               	btfsc	6,0	;volatile
  2588     04B9  2CBB               	goto	u2091
  2589     04BA  2CBC               	goto	u2090
  2590     04BB                     u2091:
  2591     04BB  2CBE               	goto	l198
  2592     04BC                     u2090:
  2593     04BC                     l2015:
  2594                           
  2595                           ;matrix_keypad.c: 36:     {;matrix_keypad.c: 37:         return 1;
  2596     04BC  3001               	movlw	1
  2597     04BD  2D49               	goto	l199
  2598     04BE                     l198:	
  2599                           ;matrix_keypad.c: 39:     else if (RB1 == 0)
  2600                           
  2601     04BE  1886               	btfsc	6,1	;volatile
  2602     04BF  2CC1               	goto	u2101
  2603     04C0  2CC2               	goto	u2100
  2604     04C1                     u2101:
  2605     04C1  2CC4               	goto	l201
  2606     04C2                     u2100:
  2607     04C2                     l2021:
  2608                           
  2609                           ;matrix_keypad.c: 40:     {;matrix_keypad.c: 41:         return 2;
  2610     04C2  3002               	movlw	2
  2611     04C3  2D49               	goto	l199
  2612     04C4                     l201:	
  2613                           ;matrix_keypad.c: 43:     else if (RB2 == 0)
  2614                           
  2615     04C4  1906               	btfsc	6,2	;volatile
  2616     04C5  2CC7               	goto	u2111
  2617     04C6  2CC8               	goto	u2110
  2618     04C7                     u2111:
  2619     04C7  2CCA               	goto	l200
  2620     04C8                     u2110:
  2621     04C8                     l2027:
  2622                           
  2623                           ;matrix_keypad.c: 44:     {;matrix_keypad.c: 45:         return 3;
  2624     04C8  3003               	movlw	3
  2625     04C9  2D49               	goto	l199
  2626     04CA                     l200:
  2627                           
  2628                           ;matrix_keypad.c: 48:     RD3 = 1;
  2629     04CA  1588               	bsf	8,3	;volatile
  2630                           
  2631                           ;matrix_keypad.c: 49:     RD2 = 0;
  2632     04CB  1108               	bcf	8,2	;volatile
  2633                           
  2634                           ;matrix_keypad.c: 50:     RD1 = 1;
  2635     04CC  1488               	bsf	8,1	;volatile
  2636                           
  2637                           ;matrix_keypad.c: 51:     RD0 = 1;
  2638     04CD  1408               	bsf	8,0	;volatile
  2639     04CE                     l2031:
  2640                           
  2641                           ;matrix_keypad.c: 53:     for (i = 100; i--; );
  2642     04CE  3064               	movlw	100
  2643     04CF  00F3               	movwf	scan_keypad@i
  2644     04D0  3000               	movlw	0
  2645     04D1  00F4               	movwf	scan_keypad@i+1
  2646     04D2                     l2033:
  2647     04D2  30FF               	movlw	255
  2648     04D3  07F3               	addwf	scan_keypad@i,f
  2649     04D4  1803               	skipnc
  2650     04D5  0AF4               	incf	scan_keypad@i+1,f
  2651     04D6  30FF               	movlw	255
  2652     04D7  07F4               	addwf	scan_keypad@i+1,f
  2653     04D8  0A73               	incf	scan_keypad@i,w
  2654     04D9  1D03               	skipz
  2655     04DA  2CDF               	goto	u2121
  2656     04DB  0A74               	incf	scan_keypad@i+1,w
  2657     04DC  1D03               	btfss	3,2
  2658     04DD  2CDF               	goto	u2121
  2659     04DE  2CE0               	goto	u2120
  2660     04DF                     u2121:
  2661     04DF  2CD2               	goto	l2033
  2662     04E0                     u2120:
  2663     04E0                     l206:
  2664                           
  2665                           ;matrix_keypad.c: 55:     if (RB0 == 0)
  2666     04E0  1283               	bcf	3,5	;RP0=0, select bank0
  2667     04E1  1303               	bcf	3,6	;RP1=0, select bank0
  2668     04E2  1806               	btfsc	6,0	;volatile
  2669     04E3  2CE5               	goto	u2131
  2670     04E4  2CE6               	goto	u2130
  2671     04E5                     u2131:
  2672     04E5  2CE8               	goto	l207
  2673     04E6                     u2130:
  2674     04E6                     l2035:
  2675                           
  2676                           ;matrix_keypad.c: 56:     {;matrix_keypad.c: 57:         return 4;
  2677     04E6  3004               	movlw	4
  2678     04E7  2D49               	goto	l199
  2679     04E8                     l207:	
  2680                           ;matrix_keypad.c: 59:     else if (RB1 == 0)
  2681                           
  2682     04E8  1886               	btfsc	6,1	;volatile
  2683     04E9  2CEB               	goto	u2141
  2684     04EA  2CEC               	goto	u2140
  2685     04EB                     u2141:
  2686     04EB  2CEE               	goto	l209
  2687     04EC                     u2140:
  2688     04EC                     l2041:
  2689                           
  2690                           ;matrix_keypad.c: 60:     {;matrix_keypad.c: 61:         return 5;
  2691     04EC  3005               	movlw	5
  2692     04ED  2D49               	goto	l199
  2693     04EE                     l209:	
  2694                           ;matrix_keypad.c: 63:     else if (RB2 == 0)
  2695                           
  2696     04EE  1906               	btfsc	6,2	;volatile
  2697     04EF  2CF1               	goto	u2151
  2698     04F0  2CF2               	goto	u2150
  2699     04F1                     u2151:
  2700     04F1  2CF4               	goto	l208
  2701     04F2                     u2150:
  2702     04F2                     l2047:
  2703                           
  2704                           ;matrix_keypad.c: 64:     {;matrix_keypad.c: 65:         return 6;
  2705     04F2  3006               	movlw	6
  2706     04F3  2D49               	goto	l199
  2707     04F4                     l208:
  2708                           
  2709                           ;matrix_keypad.c: 68:     RD3 = 1;
  2710     04F4  1588               	bsf	8,3	;volatile
  2711                           
  2712                           ;matrix_keypad.c: 69:     RD2 = 1;
  2713     04F5  1508               	bsf	8,2	;volatile
  2714                           
  2715                           ;matrix_keypad.c: 70:     RD1 = 0;
  2716     04F6  1088               	bcf	8,1	;volatile
  2717                           
  2718                           ;matrix_keypad.c: 71:     RD0 = 1;
  2719     04F7  1408               	bsf	8,0	;volatile
  2720     04F8                     l2051:
  2721                           
  2722                           ;matrix_keypad.c: 73:     for (i = 100; i--; );
  2723     04F8  3064               	movlw	100
  2724     04F9  00F3               	movwf	scan_keypad@i
  2725     04FA  3000               	movlw	0
  2726     04FB  00F4               	movwf	scan_keypad@i+1
  2727     04FC                     l2053:
  2728     04FC  30FF               	movlw	255
  2729     04FD  07F3               	addwf	scan_keypad@i,f
  2730     04FE  1803               	skipnc
  2731     04FF  0AF4               	incf	scan_keypad@i+1,f
  2732     0500  30FF               	movlw	255
  2733     0501  07F4               	addwf	scan_keypad@i+1,f
  2734     0502  0A73               	incf	scan_keypad@i,w
  2735     0503  1D03               	skipz
  2736     0504  2D09               	goto	u2161
  2737     0505  0A74               	incf	scan_keypad@i+1,w
  2738     0506  1D03               	btfss	3,2
  2739     0507  2D09               	goto	u2161
  2740     0508  2D0A               	goto	u2160
  2741     0509                     u2161:
  2742     0509  2CFC               	goto	l2053
  2743     050A                     u2160:
  2744     050A                     l214:
  2745                           
  2746                           ;matrix_keypad.c: 75:     if (RB0 == 0)
  2747     050A  1283               	bcf	3,5	;RP0=0, select bank0
  2748     050B  1303               	bcf	3,6	;RP1=0, select bank0
  2749     050C  1806               	btfsc	6,0	;volatile
  2750     050D  2D0F               	goto	u2171
  2751     050E  2D10               	goto	u2170
  2752     050F                     u2171:
  2753     050F  2D12               	goto	l215
  2754     0510                     u2170:
  2755     0510                     l2055:
  2756                           
  2757                           ;matrix_keypad.c: 76:     {;matrix_keypad.c: 77:         return 7;
  2758     0510  3007               	movlw	7
  2759     0511  2D49               	goto	l199
  2760     0512                     l215:	
  2761                           ;matrix_keypad.c: 79:     else if (RB1 == 0)
  2762                           
  2763     0512  1886               	btfsc	6,1	;volatile
  2764     0513  2D15               	goto	u2181
  2765     0514  2D16               	goto	u2180
  2766     0515                     u2181:
  2767     0515  2D18               	goto	l217
  2768     0516                     u2180:
  2769     0516                     l2061:
  2770                           
  2771                           ;matrix_keypad.c: 80:     {;matrix_keypad.c: 81:         return 8;
  2772     0516  3008               	movlw	8
  2773     0517  2D49               	goto	l199
  2774     0518                     l217:	
  2775                           ;matrix_keypad.c: 83:     else if (RB2 == 0)
  2776                           
  2777     0518  1906               	btfsc	6,2	;volatile
  2778     0519  2D1B               	goto	u2191
  2779     051A  2D1C               	goto	u2190
  2780     051B                     u2191:
  2781     051B  2D1E               	goto	l216
  2782     051C                     u2190:
  2783     051C                     l2067:
  2784                           
  2785                           ;matrix_keypad.c: 84:     {;matrix_keypad.c: 85:         return 9;
  2786     051C  3009               	movlw	9
  2787     051D  2D49               	goto	l199
  2788     051E                     l216:
  2789                           
  2790                           ;matrix_keypad.c: 88:     RD3 = 1;
  2791     051E  1588               	bsf	8,3	;volatile
  2792                           
  2793                           ;matrix_keypad.c: 89:     RD2 = 1;
  2794     051F  1508               	bsf	8,2	;volatile
  2795                           
  2796                           ;matrix_keypad.c: 90:     RD1 = 1;
  2797     0520  1488               	bsf	8,1	;volatile
  2798                           
  2799                           ;matrix_keypad.c: 91:     RD0 = 0;
  2800     0521  1008               	bcf	8,0	;volatile
  2801     0522                     l2071:
  2802                           
  2803                           ;matrix_keypad.c: 93:     for (i = 100; i--; );
  2804     0522  3064               	movlw	100
  2805     0523  00F3               	movwf	scan_keypad@i
  2806     0524  3000               	movlw	0
  2807     0525  00F4               	movwf	scan_keypad@i+1
  2808     0526                     l2073:
  2809     0526  30FF               	movlw	255
  2810     0527  07F3               	addwf	scan_keypad@i,f
  2811     0528  1803               	skipnc
  2812     0529  0AF4               	incf	scan_keypad@i+1,f
  2813     052A  30FF               	movlw	255
  2814     052B  07F4               	addwf	scan_keypad@i+1,f
  2815     052C  0A73               	incf	scan_keypad@i,w
  2816     052D  1D03               	skipz
  2817     052E  2D33               	goto	u2201
  2818     052F  0A74               	incf	scan_keypad@i+1,w
  2819     0530  1D03               	btfss	3,2
  2820     0531  2D33               	goto	u2201
  2821     0532  2D34               	goto	u2200
  2822     0533                     u2201:
  2823     0533  2D26               	goto	l2073
  2824     0534                     u2200:
  2825     0534                     l222:
  2826                           
  2827                           ;matrix_keypad.c: 95:     if (RB0 == 0)
  2828     0534  1283               	bcf	3,5	;RP0=0, select bank0
  2829     0535  1303               	bcf	3,6	;RP1=0, select bank0
  2830     0536  1806               	btfsc	6,0	;volatile
  2831     0537  2D39               	goto	u2211
  2832     0538  2D3A               	goto	u2210
  2833     0539                     u2211:
  2834     0539  2D3C               	goto	l223
  2835     053A                     u2210:
  2836     053A                     l2075:
  2837                           
  2838                           ;matrix_keypad.c: 96:     {;matrix_keypad.c: 97:         return '*';
  2839     053A  302A               	movlw	42
  2840     053B  2D49               	goto	l199
  2841     053C                     l223:	
  2842                           ;matrix_keypad.c: 99:     else if (RB1 == 0)
  2843                           
  2844     053C  1886               	btfsc	6,1	;volatile
  2845     053D  2D3F               	goto	u2221
  2846     053E  2D40               	goto	u2220
  2847     053F                     u2221:
  2848     053F  2D42               	goto	l225
  2849     0540                     u2220:
  2850     0540                     l2081:
  2851                           
  2852                           ;matrix_keypad.c: 100:     {;matrix_keypad.c: 101:         return 0;
  2853     0540  3000               	movlw	0
  2854     0541  2D49               	goto	l199
  2855     0542                     l225:	
  2856                           ;matrix_keypad.c: 103:     else if (RB2 == 0)
  2857                           
  2858     0542  1906               	btfsc	6,2	;volatile
  2859     0543  2D45               	goto	u2231
  2860     0544  2D46               	goto	u2230
  2861     0545                     u2231:
  2862     0545  2D48               	goto	l2091
  2863     0546                     u2230:
  2864     0546                     l2087:
  2865                           
  2866                           ;matrix_keypad.c: 104:     {;matrix_keypad.c: 105:         return '#';
  2867     0546  3023               	movlw	35
  2868     0547  2D49               	goto	l199
  2869     0548                     l2091:
  2870                           
  2871                           ;matrix_keypad.c: 108:     return 0xFF;
  2872     0548  30FF               	movlw	255
  2873     0549                     l199:
  2874     0549  0008               	return
  2875     054A                     __end_of_scan_keypad:
  2876                           
  2877                           	psect	text3
  2878     0EA5                     __ptext3:	
  2879 ;; *************** function _init_timer2 *****************
  2880 ;; Defined at:
  2881 ;;		line 4 in file "timers.c"
  2882 ;; Parameters:    Size  Location     Type
  2883 ;;		None
  2884 ;; Auto vars:     Size  Location     Type
  2885 ;;		None
  2886 ;; Return value:  Size  Location     Type
  2887 ;;                  1    wreg      void 
  2888 ;; Registers used:
  2889 ;;		wreg
  2890 ;; Tracked objects:
  2891 ;;		On entry : 0/0
  2892 ;;		On exit  : 0/0
  2893 ;;		Unchanged: 0/0
  2894 ;; Data sizes:     COMMON   BANK0   BANK1   BANK3   BANK2
  2895 ;;      Params:         0       0       0       0       0
  2896 ;;      Locals:         0       0       0       0       0
  2897 ;;      Temps:          0       0       0       0       0
  2898 ;;      Totals:         0       0       0       0       0
  2899 ;;Total ram usage:        0 bytes
  2900 ;; Hardware stack levels used: 1
  2901 ;; Hardware stack levels required when called: 1
  2902 ;; This function calls:
  2903 ;;		Nothing
  2904 ;; This function is called by:
  2905 ;;		_main
  2906 ;; This function uses a non-reentrant model
  2907 ;;
  2908                           
  2909     0EA5                     _init_timer2:	
  2910                           ;psect for function _init_timer2
  2911                           
  2912     0EA5                     l2101:	
  2913                           ;incstack = 0
  2914                           ; Regs used in _init_timer2: [wreg]
  2915                           
  2916                           
  2917                           ;timers.c: 7:     T2CKPS0=0;
  2918     0EA5  1283               	bcf	3,5	;RP0=0, select bank0
  2919     0EA6  1303               	bcf	3,6	;RP1=0, select bank0
  2920     0EA7  1012               	bcf	18,0	;volatile
  2921                           
  2922                           ;timers.c: 8:     T2CKPS1=0;
  2923     0EA8  1092               	bcf	18,1	;volatile
  2924     0EA9                     l2103:
  2925                           
  2926                           ;timers.c: 10:     PR2=250;
  2927     0EA9  30FA               	movlw	250
  2928     0EAA  1683               	bsf	3,5	;RP0=1, select bank1
  2929     0EAB  1303               	bcf	3,6	;RP1=0, select bank1
  2930     0EAC  0092               	movwf	18	;volatile
  2931     0EAD                     l2105:
  2932                           
  2933                           ;timers.c: 12:     TMR2IE=1;
  2934     0EAD  148C               	bsf	12,1	;volatile
  2935     0EAE                     l2107:
  2936                           
  2937                           ;timers.c: 13:     TMR2ON=0;
  2938     0EAE  1283               	bcf	3,5	;RP0=0, select bank0
  2939     0EAF  1303               	bcf	3,6	;RP1=0, select bank0
  2940     0EB0  1112               	bcf	18,2	;volatile
  2941     0EB1                     l126:
  2942     0EB1  0008               	return
  2943     0EB2                     __end_of_init_timer2:
  2944                           
  2945                           	psect	text4
  2946     0E7E                     __ptext4:	
  2947 ;; *************** function _init_config *****************
  2948 ;; Defined at:
  2949 ;;		line 34 in file "main.c"
  2950 ;; Parameters:    Size  Location     Type
  2951 ;;		None
  2952 ;; Auto vars:     Size  Location     Type
  2953 ;;		None
  2954 ;; Return value:  Size  Location     Type
  2955 ;;                  1    wreg      void 
  2956 ;; Registers used:
  2957 ;;		wreg, status,2, status,0, pclath, cstack
  2958 ;; Tracked objects:
  2959 ;;		On entry : 0/0
  2960 ;;		On exit  : 0/0
  2961 ;;		Unchanged: 0/0
  2962 ;; Data sizes:     COMMON   BANK0   BANK1   BANK3   BANK2
  2963 ;;      Params:         0       0       0       0       0
  2964 ;;      Locals:         0       0       0       0       0
  2965 ;;      Temps:          0       0       0       0       0
  2966 ;;      Totals:         0       0       0       0       0
  2967 ;;Total ram usage:        0 bytes
  2968 ;; Hardware stack levels used: 1
  2969 ;; Hardware stack levels required when called: 4
  2970 ;; This function calls:
  2971 ;;		_init_clcd
  2972 ;; This function is called by:
  2973 ;;		_main
  2974 ;; This function uses a non-reentrant model
  2975 ;;
  2976                           
  2977     0E7E                     _init_config:	
  2978                           ;psect for function _init_config
  2979                           
  2980     0E7E                     l2095:	
  2981                           ;incstack = 0
  2982                           ; Regs used in _init_config: [wreg+status,2+status,0+pclath+cstack]
  2983                           
  2984                           
  2985                           ;main.c: 36:     while (1)
  2986     0E7E  120A  158A  268E  120A  158A  	fcall	_init_clcd
  2987     0E83                     l2097:
  2988                           
  2989                           ;main.c: 38: 
  2990     0E83  170B               	bsf	11,6	;volatile
  2991     0E84                     l2099:
  2992                           
  2993                           ;main.c: 40: 
  2994     0E84  178B               	bsf	11,7	;volatile
  2995     0E85                     l61:
  2996     0E85  0008               	return
  2997     0E86                     __end_of_init_config:
  2998                           
  2999                           	psect	text5
  3000     0E8E                     __ptext5:	
  3001 ;; *************** function _init_clcd *****************
  3002 ;; Defined at:
  3003 ;;		line 44 in file "clcd.c"
  3004 ;; Parameters:    Size  Location     Type
  3005 ;;		None
  3006 ;; Auto vars:     Size  Location     Type
  3007 ;;		None
  3008 ;; Return value:  Size  Location     Type
  3009 ;;                  1    wreg      void 
  3010 ;; Registers used:
  3011 ;;		wreg, status,2, status,0, pclath, cstack
  3012 ;; Tracked objects:
  3013 ;;		On entry : 0/0
  3014 ;;		On exit  : 0/0
  3015 ;;		Unchanged: 0/0
  3016 ;; Data sizes:     COMMON   BANK0   BANK1   BANK3   BANK2
  3017 ;;      Params:         0       0       0       0       0
  3018 ;;      Locals:         0       0       0       0       0
  3019 ;;      Temps:          0       0       0       0       0
  3020 ;;      Totals:         0       0       0       0       0
  3021 ;;Total ram usage:        0 bytes
  3022 ;; Hardware stack levels used: 1
  3023 ;; Hardware stack levels required when called: 3
  3024 ;; This function calls:
  3025 ;;		_init_display_controller
  3026 ;; This function is called by:
  3027 ;;		_init_config
  3028 ;; This function uses a non-reentrant model
  3029 ;;
  3030                           
  3031     0E8E                     _init_clcd:	
  3032                           ;psect for function _init_clcd
  3033                           
  3034     0E8E                     l2001:	
  3035                           ;incstack = 0
  3036                           ; Regs used in _init_clcd: [wreg+status,2+status,0+pclath+cstack]
  3037                           
  3038                           
  3039                           ;clcd.c: 47:     TRISD = 0x00;
  3040     0E8E  1683               	bsf	3,5	;RP0=1, select bank1
  3041     0E8F  1303               	bcf	3,6	;RP1=0, select bank1
  3042     0E90  0188               	clrf	8	;volatile
  3043     0E91                     l2003:
  3044                           
  3045                           ;clcd.c: 50:     TRISE2 = 0;
  3046     0E91  1109               	bcf	9,2	;volatile
  3047     0E92                     l2005:
  3048                           
  3049                           ;clcd.c: 51:     TRISE1 = 0;
  3050     0E92  1089               	bcf	9,1	;volatile
  3051     0E93                     l2007:
  3052                           
  3053                           ;clcd.c: 53:     init_display_controller();
  3054     0E93  120A  118A  25D7  120A  158A  	fcall	_init_display_controller
  3055     0E98                     l149:
  3056     0E98  0008               	return
  3057     0E99                     __end_of_init_clcd:
  3058                           
  3059                           	psect	text6
  3060     05D7                     __ptext6:	
  3061 ;; *************** function _init_display_controller *****************
  3062 ;; Defined at:
  3063 ;;		line 21 in file "clcd.c"
  3064 ;; Parameters:    Size  Location     Type
  3065 ;;		None
  3066 ;; Auto vars:     Size  Location     Type
  3067 ;;		None
  3068 ;; Return value:  Size  Location     Type
  3069 ;;                  1    wreg      void 
  3070 ;; Registers used:
  3071 ;;		wreg, status,2, status,0, pclath, cstack
  3072 ;; Tracked objects:
  3073 ;;		On entry : 0/0
  3074 ;;		On exit  : 0/0
  3075 ;;		Unchanged: 0/0
  3076 ;; Data sizes:     COMMON   BANK0   BANK1   BANK3   BANK2
  3077 ;;      Params:         0       0       0       0       0
  3078 ;;      Locals:         0       0       0       0       0
  3079 ;;      Temps:          0       2       0       0       0
  3080 ;;      Totals:         0       2       0       0       0
  3081 ;;Total ram usage:        2 bytes
  3082 ;; Hardware stack levels used: 1
  3083 ;; Hardware stack levels required when called: 2
  3084 ;; This function calls:
  3085 ;;		_clcd_write
  3086 ;; This function is called by:
  3087 ;;		_init_clcd
  3088 ;; This function uses a non-reentrant model
  3089 ;;
  3090                           
  3091     05D7                     _init_display_controller:	
  3092                           ;psect for function _init_display_controller
  3093                           
  3094     05D7                     l1977:	
  3095                           ;incstack = 0
  3096                           ; Regs used in _init_display_controller: [wreg+status,2+status,0+pclath+cstack]
  3097                           
  3098                           
  3099                           ;clcd.c: 24:     _delay((unsigned long)((30)*(20000000/4000.0)));
  3100     05D7  30C3               	movlw	195
  3101     05D8  1283               	bcf	3,5	;RP0=0, select bank0
  3102     05D9  1303               	bcf	3,6	;RP1=0, select bank0
  3103     05DA  00A1               	movwf	??_init_display_controller+1
  3104     05DB  30CC               	movlw	204
  3105     05DC  00A0               	movwf	??_init_display_controller
  3106     05DD                     u3027:
  3107     05DD  0BA0               	decfsz	??_init_display_controller,f
  3108     05DE  2DDD               	goto	u3027
  3109     05DF  0BA1               	decfsz	??_init_display_controller+1,f
  3110     05E0  2DDD               	goto	u3027
  3111     05E1  0000               	nop
  3112     05E2                     l1979:
  3113                           
  3114                           ;clcd.c: 27:     clcd_write(0x33, 0);
  3115     05E2  01F3               	clrf	clcd_write@mode
  3116     05E3  3033               	movlw	51
  3117     05E4  120A  158A  26F8  120A  118A  	fcall	_clcd_write
  3118     05E9                     l1981:
  3119                           
  3120                           ;clcd.c: 28:     _delay((unsigned long)((4100)*(20000000/4000000.0)));
  3121     05E9  301B               	movlw	27
  3122     05EA  1283               	bcf	3,5	;RP0=0, select bank0
  3123     05EB  1303               	bcf	3,6	;RP1=0, select bank0
  3124     05EC  00A1               	movwf	??_init_display_controller+1
  3125     05ED  309D               	movlw	157
  3126     05EE  00A0               	movwf	??_init_display_controller
  3127     05EF                     u3037:
  3128     05EF  0BA0               	decfsz	??_init_display_controller,f
  3129     05F0  2DEF               	goto	u3037
  3130     05F1  0BA1               	decfsz	??_init_display_controller+1,f
  3131     05F2  2DEF               	goto	u3037
  3132     05F3  2DF4               	nop2
  3133                           
  3134                           ;clcd.c: 29:     clcd_write(0x33, 0);
  3135     05F4  01F3               	clrf	clcd_write@mode
  3136     05F5  3033               	movlw	51
  3137     05F6  120A  158A  26F8  120A  118A  	fcall	_clcd_write
  3138     05FB                     l1983:
  3139                           
  3140                           ;clcd.c: 30:     _delay((unsigned long)((100)*(20000000/4000000.0)));
  3141     05FB  30A5               	movlw	165
  3142     05FC  1283               	bcf	3,5	;RP0=0, select bank0
  3143     05FD  1303               	bcf	3,6	;RP1=0, select bank0
  3144     05FE  00A0               	movwf	??_init_display_controller
  3145     05FF                     u3047:
  3146     05FF  0BA0               	decfsz	??_init_display_controller,f
  3147     0600  2DFF               	goto	u3047
  3148     0601  2E02               	nop2
  3149     0602                     l1985:
  3150                           
  3151                           ;clcd.c: 31:     clcd_write(0x33, 0);
  3152     0602  01F3               	clrf	clcd_write@mode
  3153     0603  3033               	movlw	51
  3154     0604  120A  158A  26F8  120A  118A  	fcall	_clcd_write
  3155     0609                     l1987:
  3156                           
  3157                           ;clcd.c: 32:     _delay((unsigned long)((1)*(20000000/4000000.0)));
  3158     0609  2E0A               	nop2	;2 cycle nop
  3159     060A  2E0B               	nop2	;2 cycle nop
  3160     060B  0000               	nop
  3161     060C                     l1989:
  3162                           
  3163                           ;clcd.c: 34:     clcd_write(0x02, 0);
  3164     060C  01F3               	clrf	clcd_write@mode
  3165     060D  3002               	movlw	2
  3166     060E  120A  158A  26F8  120A  118A  	fcall	_clcd_write
  3167     0613                     l1991:
  3168                           
  3169                           ;clcd.c: 35:     _delay((unsigned long)((100)*(20000000/4000000.0)));
  3170     0613  30A5               	movlw	165
  3171     0614  1283               	bcf	3,5	;RP0=0, select bank0
  3172     0615  1303               	bcf	3,6	;RP1=0, select bank0
  3173     0616  00A0               	movwf	??_init_display_controller
  3174     0617                     u3057:
  3175     0617  0BA0               	decfsz	??_init_display_controller,f
  3176     0618  2E17               	goto	u3057
  3177     0619  2E1A               	nop2
  3178                           
  3179                           ;clcd.c: 36:     clcd_write(0x28, 0);
  3180     061A  01F3               	clrf	clcd_write@mode
  3181     061B  3028               	movlw	40
  3182     061C  120A  158A  26F8  120A  118A  	fcall	_clcd_write
  3183     0621                     l1993:
  3184                           
  3185                           ;clcd.c: 37:     _delay((unsigned long)((100)*(20000000/4000000.0)));
  3186     0621  30A5               	movlw	165
  3187     0622  1283               	bcf	3,5	;RP0=0, select bank0
  3188     0623  1303               	bcf	3,6	;RP1=0, select bank0
  3189     0624  00A0               	movwf	??_init_display_controller
  3190     0625                     u3067:
  3191     0625  0BA0               	decfsz	??_init_display_controller,f
  3192     0626  2E25               	goto	u3067
  3193     0627  2E28               	nop2
  3194     0628                     l1995:
  3195                           
  3196                           ;clcd.c: 38:     clcd_write(0x01, 0);
  3197     0628  01F3               	clrf	clcd_write@mode
  3198     0629  3001               	movlw	1
  3199     062A  120A  158A  26F8  120A  118A  	fcall	_clcd_write
  3200                           
  3201                           ;clcd.c: 39:     _delay((unsigned long)((500)*(20000000/4000000.0)));
  3202     062F  3004               	movlw	4
  3203     0630  1283               	bcf	3,5	;RP0=0, select bank0
  3204     0631  1303               	bcf	3,6	;RP1=0, select bank0
  3205     0632  00A1               	movwf	??_init_display_controller+1
  3206     0633  303D               	movlw	61
  3207     0634  00A0               	movwf	??_init_display_controller
  3208     0635                     u3077:
  3209     0635  0BA0               	decfsz	??_init_display_controller,f
  3210     0636  2E35               	goto	u3077
  3211     0637  0BA1               	decfsz	??_init_display_controller+1,f
  3212     0638  2E35               	goto	u3077
  3213     0639                     l1997:
  3214                           
  3215                           ;clcd.c: 40:     clcd_write(0x0C, 0);
  3216     0639  01F3               	clrf	clcd_write@mode
  3217     063A  300C               	movlw	12
  3218     063B  120A  158A  26F8  120A  118A  	fcall	_clcd_write
  3219     0640                     l1999:
  3220                           
  3221                           ;clcd.c: 41:     _delay((unsigned long)((100)*(20000000/4000000.0)));
  3222     0640  30A5               	movlw	165
  3223     0641  1283               	bcf	3,5	;RP0=0, select bank0
  3224     0642  1303               	bcf	3,6	;RP1=0, select bank0
  3225     0643  00A0               	movwf	??_init_display_controller
  3226     0644                     u3087:
  3227     0644  0BA0               	decfsz	??_init_display_controller,f
  3228     0645  2E44               	goto	u3087
  3229     0646  2E47               	nop2
  3230     0647                     l146:
  3231     0647  0008               	return
  3232     0648                     __end_of_init_display_controller:
  3233                           
  3234                           	psect	text7
  3235     0EC5                     __ptext7:	
  3236 ;; *************** function _clcd_print *****************
  3237 ;; Defined at:
  3238 ;;		line 62 in file "clcd.c"
  3239 ;; Parameters:    Size  Location     Type
  3240 ;;  str             2    0[BANK0 ] PTR const unsigned char 
  3241 ;;		 -> STR_11(17), STR_10(17), STR_9(17), STR_8(17), 
  3242 ;;		 -> STR_7(17), STR_6(17), STR_5(17), STR_4(17), 
  3243 ;;		 -> STR_3(17), main@L4(16), main@L3(16), main@L2(16), 
  3244 ;;		 -> main@L1(16), main@L0(16), main@hourA(3), main@minA(3), 
  3245 ;;		 -> main@secA(3), main@cesec(3), STR_2(17), STR_1(17), 
  3246 ;;  addr            1    2[BANK0 ] unsigned char 
  3247 ;; Auto vars:     Size  Location     Type
  3248 ;;		None
  3249 ;; Return value:  Size  Location     Type
  3250 ;;                  1    wreg      void 
  3251 ;; Registers used:
  3252 ;;		wreg, fsr0l, fsr0h, status,2, status,0, btemp+1, pclath, cstack
  3253 ;; Tracked objects:
  3254 ;;		On entry : 0/0
  3255 ;;		On exit  : 0/0
  3256 ;;		Unchanged: 0/0
  3257 ;; Data sizes:     COMMON   BANK0   BANK1   BANK3   BANK2
  3258 ;;      Params:         0       3       0       0       0
  3259 ;;      Locals:         0       0       0       0       0
  3260 ;;      Temps:          0       0       0       0       0
  3261 ;;      Totals:         0       3       0       0       0
  3262 ;;Total ram usage:        3 bytes
  3263 ;; Hardware stack levels used: 1
  3264 ;; Hardware stack levels required when called: 2
  3265 ;; This function calls:
  3266 ;;		_clcd_write
  3267 ;; This function is called by:
  3268 ;;		_main
  3269 ;; This function uses a non-reentrant model
  3270 ;;
  3271                           
  3272     0EC5                     _clcd_print:	
  3273                           ;psect for function _clcd_print
  3274                           
  3275     0EC5                     l2109:	
  3276                           ;incstack = 0
  3277                           ; Regs used in _clcd_print: [wreg-fsr0h+status,2+status,0+btemp+1+pclath+cstack]
  3278                           
  3279                           
  3280                           ;clcd.c: 62: void clcd_print(const char *str, unsigned char addr);clcd.c: 63: {;clcd.c: 
      +                          64:     clcd_write(addr, 0);
  3281     0EC5  01F3               	clrf	clcd_write@mode
  3282     0EC6  1283               	bcf	3,5	;RP0=0, select bank0
  3283     0EC7  1303               	bcf	3,6	;RP1=0, select bank0
  3284     0EC8  0822               	movf	clcd_print@addr,w
  3285     0EC9  120A  158A  26F8  120A  158A  	fcall	_clcd_write
  3286                           
  3287                           ;clcd.c: 66:     while (*str != '\0')
  3288     0ECE  2EE7               	goto	l2115
  3289     0ECF                     l2111:
  3290                           
  3291                           ;clcd.c: 67:     {;clcd.c: 68:         clcd_write(*str, 1);
  3292     0ECF  01F3               	clrf	clcd_write@mode
  3293     0ED0  0AF3               	incf	clcd_write@mode,f
  3294     0ED1  0821               	movf	clcd_print@str+1,w
  3295     0ED2  00FF               	movwf	btemp+1
  3296     0ED3  0820               	movf	clcd_print@str,w
  3297     0ED4  0084               	movwf	4
  3298     0ED5  120A  118A  271B  120A  158A  	fcall	stringtab
  3299     0EDA  120A  158A  26F8  120A  158A  	fcall	_clcd_write
  3300     0EDF                     l2113:
  3301                           
  3302                           ;clcd.c: 69:         str++;
  3303     0EDF  3001               	movlw	1
  3304     0EE0  1283               	bcf	3,5	;RP0=0, select bank0
  3305     0EE1  1303               	bcf	3,6	;RP1=0, select bank0
  3306     0EE2  07A0               	addwf	clcd_print@str,f
  3307     0EE3  1803               	skipnc
  3308     0EE4  0AA1               	incf	clcd_print@str+1,f
  3309     0EE5  3000               	movlw	0
  3310     0EE6  07A1               	addwf	clcd_print@str+1,f
  3311     0EE7                     l2115:
  3312                           
  3313                           ;clcd.c: 66:     while (*str != '\0')
  3314     0EE7  1283               	bcf	3,5	;RP0=0, select bank0
  3315     0EE8  1303               	bcf	3,6	;RP1=0, select bank0
  3316     0EE9  0821               	movf	clcd_print@str+1,w
  3317     0EEA  00FF               	movwf	btemp+1
  3318     0EEB  0820               	movf	clcd_print@str,w
  3319     0EEC  0084               	movwf	4
  3320     0EED  120A  118A  271B  120A  158A  	fcall	stringtab
  3321     0EF2  3A00               	xorlw	0
  3322     0EF3  1D03               	skipz
  3323     0EF4  2EF6               	goto	u2241
  3324     0EF5  2EF7               	goto	u2240
  3325     0EF6                     u2241:
  3326     0EF6  2ECF               	goto	l2111
  3327     0EF7                     u2240:
  3328     0EF7                     l158:
  3329     0EF7  0008               	return
  3330     0EF8                     __end_of_clcd_print:
  3331                           
  3332                           	psect	text8
  3333     0EF8                     __ptext8:	
  3334 ;; *************** function _clcd_write *****************
  3335 ;; Defined at:
  3336 ;;		line 4 in file "clcd.c"
  3337 ;; Parameters:    Size  Location     Type
  3338 ;;  byte            1    wreg     unsigned char 
  3339 ;;  mode            1    3[COMMON] unsigned char 
  3340 ;; Auto vars:     Size  Location     Type
  3341 ;;  byte            1    6[COMMON] unsigned char 
  3342 ;; Return value:  Size  Location     Type
  3343 ;;                  1    wreg      void 
  3344 ;; Registers used:
  3345 ;;		wreg, status,2, status,0
  3346 ;; Tracked objects:
  3347 ;;		On entry : 0/0
  3348 ;;		On exit  : 0/0
  3349 ;;		Unchanged: 0/0
  3350 ;; Data sizes:     COMMON   BANK0   BANK1   BANK3   BANK2
  3351 ;;      Params:         1       0       0       0       0
  3352 ;;      Locals:         1       0       0       0       0
  3353 ;;      Temps:          2       0       0       0       0
  3354 ;;      Totals:         4       0       0       0       0
  3355 ;;Total ram usage:        4 bytes
  3356 ;; Hardware stack levels used: 1
  3357 ;; Hardware stack levels required when called: 1
  3358 ;; This function calls:
  3359 ;;		Nothing
  3360 ;; This function is called by:
  3361 ;;		_init_display_controller
  3362 ;;		_clcd_print
  3363 ;;		_clcd_putch
  3364 ;; This function uses a non-reentrant model
  3365 ;;
  3366                           
  3367     0EF8                     _clcd_write:	
  3368                           ;psect for function _clcd_write
  3369                           
  3370                           
  3371                           ;incstack = 0
  3372                           ; Regs used in _clcd_write: [wreg+status,2+status,0]
  3373                           ;clcd_write@byte stored from wreg
  3374     0EF8  00F6               	movwf	clcd_write@byte
  3375     0EF9                     l1957:
  3376                           
  3377                           ;clcd.c: 4: static void clcd_write(unsigned char byte, unsigned char mode);clcd.c: 5: {;
      +                          clcd.c: 6:     RE2 = mode;
  3378     0EF9  1873               	btfsc	clcd_write@mode,0
  3379     0EFA  2EFC               	goto	u2051
  3380     0EFB  2F00               	goto	u2050
  3381     0EFC                     u2051:
  3382     0EFC  1283               	bcf	3,5	;RP0=0, select bank0
  3383     0EFD  1303               	bcf	3,6	;RP1=0, select bank0
  3384     0EFE  1509               	bsf	9,2	;volatile
  3385     0EFF  2F03               	goto	u2064
  3386     0F00                     u2050:
  3387     0F00  1283               	bcf	3,5	;RP0=0, select bank0
  3388     0F01  1303               	bcf	3,6	;RP1=0, select bank0
  3389     0F02  1109               	bcf	9,2	;volatile
  3390     0F03                     u2064:
  3391     0F03                     l1959:
  3392                           
  3393                           ;clcd.c: 8:     PORTD = byte & 0xF0;
  3394     0F03  0876               	movf	clcd_write@byte,w
  3395     0F04  39F0               	andlw	240
  3396     0F05  0088               	movwf	8	;volatile
  3397     0F06                     l1961:
  3398                           
  3399                           ;clcd.c: 9:     RE1 = 1;
  3400     0F06  1489               	bsf	9,1	;volatile
  3401     0F07                     l1963:
  3402                           
  3403                           ;clcd.c: 10:     _delay((unsigned long)((100)*(20000000/4000000.0)));
  3404     0F07  30A6               	movlw	166
  3405     0F08  00F4               	movwf	??_clcd_write
  3406     0F09                     u3097:
  3407     0F09  0BF4               	decfsz	??_clcd_write,f
  3408     0F0A  2F09               	goto	u3097
  3409     0F0B  0000               	nop
  3410     0F0C                     l1965:
  3411                           
  3412                           ;clcd.c: 11:     RE1 = 0;
  3413     0F0C  1283               	bcf	3,5	;RP0=0, select bank0
  3414     0F0D  1303               	bcf	3,6	;RP1=0, select bank0
  3415     0F0E  1089               	bcf	9,1	;volatile
  3416     0F0F                     l1967:
  3417                           
  3418                           ;clcd.c: 13:     PORTD = (byte & 0x0F) << 4;
  3419     0F0F  0876               	movf	clcd_write@byte,w
  3420     0F10  390F               	andlw	15
  3421     0F11  00F4               	movwf	??_clcd_write
  3422     0F12  3003               	movlw	3
  3423     0F13                     u2075:
  3424     0F13  1003               	clrc
  3425     0F14  0DF4               	rlf	??_clcd_write,f
  3426     0F15  3EFF               	addlw	-1
  3427     0F16  1D03               	skipz
  3428     0F17  2F13               	goto	u2075
  3429     0F18  1003               	clrc
  3430     0F19  0D74               	rlf	??_clcd_write,w
  3431     0F1A  0088               	movwf	8	;volatile
  3432     0F1B                     l1969:
  3433                           
  3434                           ;clcd.c: 14:     RE1 = 1;
  3435     0F1B  1489               	bsf	9,1	;volatile
  3436     0F1C                     l1971:
  3437                           
  3438                           ;clcd.c: 15:     _delay((unsigned long)((100)*(20000000/4000000.0)));
  3439     0F1C  30A6               	movlw	166
  3440     0F1D  00F4               	movwf	??_clcd_write
  3441     0F1E                     u3107:
  3442     0F1E  0BF4               	decfsz	??_clcd_write,f
  3443     0F1F  2F1E               	goto	u3107
  3444     0F20  0000               	nop
  3445     0F21                     l1973:
  3446                           
  3447                           ;clcd.c: 16:     RE1 = 0;
  3448     0F21  1283               	bcf	3,5	;RP0=0, select bank0
  3449     0F22  1303               	bcf	3,6	;RP1=0, select bank0
  3450     0F23  1089               	bcf	9,1	;volatile
  3451     0F24                     l1975:
  3452                           
  3453                           ;clcd.c: 18:     _delay((unsigned long)((4100)*(20000000/4000000.0)));
  3454     0F24  301B               	movlw	27
  3455     0F25  00F5               	movwf	??_clcd_write+1
  3456     0F26  309E               	movlw	158
  3457     0F27  00F4               	movwf	??_clcd_write
  3458     0F28                     u3117:
  3459     0F28  0BF4               	decfsz	??_clcd_write,f
  3460     0F29  2F28               	goto	u3117
  3461     0F2A  0BF5               	decfsz	??_clcd_write+1,f
  3462     0F2B  2F28               	goto	u3117
  3463     0F2C  0000               	nop
  3464     0F2D                     l143:
  3465     0F2D  0008               	return
  3466     0F2E                     __end_of_clcd_write:
  3467                           
  3468                           	psect	text9
  3469     054A                     __ptext9:	
  3470 ;; *************** function _clcd_copy *****************
  3471 ;; Defined at:
  3472 ;;		line 72 in file "clcd.c"
  3473 ;; Parameters:    Size  Location     Type
  3474 ;;  arr             1    wreg     PTR unsigned char 
  3475 ;;		 -> main@L4(16), main@L3(16), main@L2(16), main@L1(16), 
  3476 ;;		 -> main@L0(16), 
  3477 ;;  hour            1    3[COMMON] PTR const unsigned char 
  3478 ;;		 -> main@hourA(3), 
  3479 ;;  min             1    4[COMMON] PTR const unsigned char 
  3480 ;;		 -> main@minA(3), 
  3481 ;;  sec             1    5[COMMON] PTR const unsigned char 
  3482 ;;		 -> main@secA(3), 
  3483 ;;  csec            1    6[COMMON] PTR const unsigned char 
  3484 ;;		 -> main@cesec(3), 
  3485 ;; Auto vars:     Size  Location     Type
  3486 ;;  arr             1    2[BANK0 ] PTR unsigned char 
  3487 ;;		 -> main@L4(16), main@L3(16), main@L2(16), main@L1(16), 
  3488 ;;		 -> main@L0(16), 
  3489 ;;  i               2    3[BANK0 ] unsigned int 
  3490 ;; Return value:  Size  Location     Type
  3491 ;;                  1    wreg      void 
  3492 ;; Registers used:
  3493 ;;		wreg, fsr0l, fsr0h, status,2, status,0
  3494 ;; Tracked objects:
  3495 ;;		On entry : 0/0
  3496 ;;		On exit  : 0/0
  3497 ;;		Unchanged: 0/0
  3498 ;; Data sizes:     COMMON   BANK0   BANK1   BANK3   BANK2
  3499 ;;      Params:         4       0       0       0       0
  3500 ;;      Locals:         0       3       0       0       0
  3501 ;;      Temps:          0       2       0       0       0
  3502 ;;      Totals:         4       5       0       0       0
  3503 ;;Total ram usage:        9 bytes
  3504 ;; Hardware stack levels used: 1
  3505 ;; Hardware stack levels required when called: 1
  3506 ;; This function calls:
  3507 ;;		Nothing
  3508 ;; This function is called by:
  3509 ;;		_main
  3510 ;; This function uses a non-reentrant model
  3511 ;;
  3512                           
  3513     054A                     _clcd_copy:	
  3514                           ;psect for function _clcd_copy
  3515                           
  3516                           
  3517                           ;incstack = 0
  3518                           ; Regs used in _clcd_copy: [wreg-fsr0h+status,2+status,0]
  3519                           ;clcd_copy@arr stored from wreg
  3520     054A  1283               	bcf	3,5	;RP0=0, select bank0
  3521     054B  1303               	bcf	3,6	;RP1=0, select bank0
  3522     054C  00A2               	movwf	clcd_copy@arr
  3523     054D                     l2147:
  3524     054D                     l2149:
  3525                           
  3526                           ;clcd.c: 76:     for(i = 5;i<7;i++)
  3527     054D  3005               	movlw	5
  3528     054E  00A3               	movwf	clcd_copy@i
  3529     054F  3000               	movlw	0
  3530     0550  00A4               	movwf	clcd_copy@i+1
  3531     0551                     l2155:
  3532                           
  3533                           ;clcd.c: 77:     {;clcd.c: 78:        *(arr + i) = *hour;
  3534     0551  0873               	movf	clcd_copy@hour,w
  3535     0552  0084               	movwf	4
  3536     0553  1383               	bcf	3,7	;select IRP bank0
  3537     0554  0800               	movf	0,w
  3538     0555  00A0               	movwf	??_clcd_copy
  3539     0556  0823               	movf	clcd_copy@i,w
  3540     0557  0722               	addwf	clcd_copy@arr,w
  3541     0558  00A1               	movwf	??_clcd_copy+1
  3542     0559  0821               	movf	??_clcd_copy+1,w
  3543     055A  0084               	movwf	4
  3544     055B  0820               	movf	??_clcd_copy,w
  3545     055C  0080               	movwf	0
  3546     055D                     l2157:
  3547                           
  3548                           ;clcd.c: 79:        hour++;
  3549     055D  3001               	movlw	1
  3550     055E  00A0               	movwf	??_clcd_copy
  3551     055F  0820               	movf	??_clcd_copy,w
  3552     0560  07F3               	addwf	clcd_copy@hour,f
  3553     0561                     l2159:
  3554                           
  3555                           ;clcd.c: 80:     }
  3556     0561  3001               	movlw	1
  3557     0562  07A3               	addwf	clcd_copy@i,f
  3558     0563  1803               	skipnc
  3559     0564  0AA4               	incf	clcd_copy@i+1,f
  3560     0565  3000               	movlw	0
  3561     0566  07A4               	addwf	clcd_copy@i+1,f
  3562     0567                     l2161:
  3563     0567  3000               	movlw	0
  3564     0568  0224               	subwf	clcd_copy@i+1,w
  3565     0569  3007               	movlw	7
  3566     056A  1903               	skipnz
  3567     056B  0223               	subwf	clcd_copy@i,w
  3568     056C  1C03               	skipc
  3569     056D  2D6F               	goto	u2291
  3570     056E  2D70               	goto	u2290
  3571     056F                     u2291:
  3572     056F  2D51               	goto	l2155
  3573     0570                     u2290:
  3574     0570                     l2163:
  3575                           
  3576                           ;clcd.c: 81:     for(i = 8;i<10;i++)
  3577     0570  3008               	movlw	8
  3578     0571  00A3               	movwf	clcd_copy@i
  3579     0572  3000               	movlw	0
  3580     0573  00A4               	movwf	clcd_copy@i+1
  3581     0574                     l2167:
  3582                           
  3583                           ;clcd.c: 82:     {;clcd.c: 83:        *(arr + i) = *min;
  3584     0574  0874               	movf	clcd_copy@min,w
  3585     0575  0084               	movwf	4
  3586     0576  0800               	movf	0,w
  3587     0577  00A0               	movwf	??_clcd_copy
  3588     0578  0823               	movf	clcd_copy@i,w
  3589     0579  0722               	addwf	clcd_copy@arr,w
  3590     057A  00A1               	movwf	??_clcd_copy+1
  3591     057B  0821               	movf	??_clcd_copy+1,w
  3592     057C  0084               	movwf	4
  3593     057D  0820               	movf	??_clcd_copy,w
  3594     057E  0080               	movwf	0
  3595     057F                     l2169:
  3596                           
  3597                           ;clcd.c: 84:        min++;
  3598     057F  3001               	movlw	1
  3599     0580  00A0               	movwf	??_clcd_copy
  3600     0581  0820               	movf	??_clcd_copy,w
  3601     0582  07F4               	addwf	clcd_copy@min,f
  3602     0583                     l2171:
  3603                           
  3604                           ;clcd.c: 85:     }
  3605     0583  3001               	movlw	1
  3606     0584  07A3               	addwf	clcd_copy@i,f
  3607     0585  1803               	skipnc
  3608     0586  0AA4               	incf	clcd_copy@i+1,f
  3609     0587  3000               	movlw	0
  3610     0588  07A4               	addwf	clcd_copy@i+1,f
  3611     0589                     l2173:
  3612     0589  3000               	movlw	0
  3613     058A  0224               	subwf	clcd_copy@i+1,w
  3614     058B  300A               	movlw	10
  3615     058C  1903               	skipnz
  3616     058D  0223               	subwf	clcd_copy@i,w
  3617     058E  1C03               	skipc
  3618     058F  2D91               	goto	u2301
  3619     0590  2D92               	goto	u2300
  3620     0591                     u2301:
  3621     0591  2D74               	goto	l2167
  3622     0592                     u2300:
  3623     0592                     l2175:
  3624                           
  3625                           ;clcd.c: 86:     for(i = 11;i<13;i++)
  3626     0592  300B               	movlw	11
  3627     0593  00A3               	movwf	clcd_copy@i
  3628     0594  3000               	movlw	0
  3629     0595  00A4               	movwf	clcd_copy@i+1
  3630     0596                     l2179:
  3631                           
  3632                           ;clcd.c: 87:     {;clcd.c: 88:        *(arr + i) = *sec;
  3633     0596  0875               	movf	clcd_copy@sec,w
  3634     0597  0084               	movwf	4
  3635     0598  0800               	movf	0,w
  3636     0599  00A0               	movwf	??_clcd_copy
  3637     059A  0823               	movf	clcd_copy@i,w
  3638     059B  0722               	addwf	clcd_copy@arr,w
  3639     059C  00A1               	movwf	??_clcd_copy+1
  3640     059D  0821               	movf	??_clcd_copy+1,w
  3641     059E  0084               	movwf	4
  3642     059F  0820               	movf	??_clcd_copy,w
  3643     05A0  0080               	movwf	0
  3644     05A1                     l2181:
  3645                           
  3646                           ;clcd.c: 89:        sec++;
  3647     05A1  3001               	movlw	1
  3648     05A2  00A0               	movwf	??_clcd_copy
  3649     05A3  0820               	movf	??_clcd_copy,w
  3650     05A4  07F5               	addwf	clcd_copy@sec,f
  3651     05A5                     l2183:
  3652                           
  3653                           ;clcd.c: 90:     }
  3654     05A5  3001               	movlw	1
  3655     05A6  07A3               	addwf	clcd_copy@i,f
  3656     05A7  1803               	skipnc
  3657     05A8  0AA4               	incf	clcd_copy@i+1,f
  3658     05A9  3000               	movlw	0
  3659     05AA  07A4               	addwf	clcd_copy@i+1,f
  3660     05AB                     l2185:
  3661     05AB  3000               	movlw	0
  3662     05AC  0224               	subwf	clcd_copy@i+1,w
  3663     05AD  300D               	movlw	13
  3664     05AE  1903               	skipnz
  3665     05AF  0223               	subwf	clcd_copy@i,w
  3666     05B0  1C03               	skipc
  3667     05B1  2DB3               	goto	u2311
  3668     05B2  2DB4               	goto	u2310
  3669     05B3                     u2311:
  3670     05B3  2D96               	goto	l2179
  3671     05B4                     u2310:
  3672     05B4                     l2187:
  3673                           
  3674                           ;clcd.c: 91:     for(i = 14;i<16;i++)
  3675     05B4  300E               	movlw	14
  3676     05B5  00A3               	movwf	clcd_copy@i
  3677     05B6  3000               	movlw	0
  3678     05B7  00A4               	movwf	clcd_copy@i+1
  3679     05B8                     l2191:
  3680                           
  3681                           ;clcd.c: 92:     {;clcd.c: 93:        *(arr + i) = *csec;
  3682     05B8  0876               	movf	clcd_copy@csec,w
  3683     05B9  0084               	movwf	4
  3684     05BA  0800               	movf	0,w
  3685     05BB  00A0               	movwf	??_clcd_copy
  3686     05BC  0823               	movf	clcd_copy@i,w
  3687     05BD  0722               	addwf	clcd_copy@arr,w
  3688     05BE  00A1               	movwf	??_clcd_copy+1
  3689     05BF  0821               	movf	??_clcd_copy+1,w
  3690     05C0  0084               	movwf	4
  3691     05C1  0820               	movf	??_clcd_copy,w
  3692     05C2  0080               	movwf	0
  3693     05C3                     l2193:
  3694                           
  3695                           ;clcd.c: 94:        csec++;
  3696     05C3  3001               	movlw	1
  3697     05C4  00A0               	movwf	??_clcd_copy
  3698     05C5  0820               	movf	??_clcd_copy,w
  3699     05C6  07F6               	addwf	clcd_copy@csec,f
  3700     05C7                     l2195:
  3701                           
  3702                           ;clcd.c: 95:     }
  3703     05C7  3001               	movlw	1
  3704     05C8  07A3               	addwf	clcd_copy@i,f
  3705     05C9  1803               	skipnc
  3706     05CA  0AA4               	incf	clcd_copy@i+1,f
  3707     05CB  3000               	movlw	0
  3708     05CC  07A4               	addwf	clcd_copy@i+1,f
  3709     05CD                     l2197:
  3710     05CD  3000               	movlw	0
  3711     05CE  0224               	subwf	clcd_copy@i+1,w
  3712     05CF  3010               	movlw	16
  3713     05D0  1903               	skipnz
  3714     05D1  0223               	subwf	clcd_copy@i,w
  3715     05D2  1C03               	skipc
  3716     05D3  2DD5               	goto	u2321
  3717     05D4  2DD6               	goto	u2320
  3718     05D5                     u2321:
  3719     05D5  2DB8               	goto	l2191
  3720     05D6                     u2320:
  3721     05D6                     l169:
  3722     05D6  0008               	return
  3723     05D7                     __end_of_clcd_copy:
  3724                           
  3725                           	psect	text10
  3726     0F2E                     __ptext10:	
  3727 ;; *************** function ___lwmod *****************
  3728 ;; Defined at:
  3729 ;;		line 5 in file "C:\Program Files\Microchip\xc8\v2.40\pic\sources\c90\common\lwmod.c"
  3730 ;; Parameters:    Size  Location     Type
  3731 ;;  divisor         2    3[COMMON] unsigned int 
  3732 ;;  dividend        2    5[COMMON] unsigned int 
  3733 ;; Auto vars:     Size  Location     Type
  3734 ;;  counter         1    0[BANK0 ] unsigned char 
  3735 ;; Return value:  Size  Location     Type
  3736 ;;                  2    3[COMMON] unsigned int 
  3737 ;; Registers used:
  3738 ;;		wreg, status,2, status,0
  3739 ;; Tracked objects:
  3740 ;;		On entry : 0/0
  3741 ;;		On exit  : 0/0
  3742 ;;		Unchanged: 0/0
  3743 ;; Data sizes:     COMMON   BANK0   BANK1   BANK3   BANK2
  3744 ;;      Params:         4       0       0       0       0
  3745 ;;      Locals:         0       1       0       0       0
  3746 ;;      Temps:          1       0       0       0       0
  3747 ;;      Totals:         5       1       0       0       0
  3748 ;;Total ram usage:        6 bytes
  3749 ;; Hardware stack levels used: 1
  3750 ;; Hardware stack levels required when called: 1
  3751 ;; This function calls:
  3752 ;;		Nothing
  3753 ;; This function is called by:
  3754 ;;		_main
  3755 ;; This function uses a non-reentrant model
  3756 ;;
  3757                           
  3758     0F2E                     ___lwmod:	
  3759                           ;psect for function ___lwmod
  3760                           
  3761     0F2E                     l2307:	
  3762                           ;incstack = 0
  3763                           ; Regs used in ___lwmod: [wreg+status,2+status,0]
  3764                           
  3765     0F2E  0873               	movf	___lwmod@divisor,w
  3766     0F2F  0474               	iorwf	___lwmod@divisor+1,w
  3767     0F30  1903               	btfsc	3,2
  3768     0F31  2F33               	goto	u2591
  3769     0F32  2F34               	goto	u2590
  3770     0F33                     u2591:
  3771     0F33  2F65               	goto	l2325
  3772     0F34                     u2590:
  3773     0F34                     l2309:
  3774     0F34  1283               	bcf	3,5	;RP0=0, select bank0
  3775     0F35  1303               	bcf	3,6	;RP1=0, select bank0
  3776     0F36  01A0               	clrf	___lwmod@counter
  3777     0F37  0AA0               	incf	___lwmod@counter,f
  3778     0F38  2F44               	goto	l2315
  3779     0F39                     l2311:
  3780     0F39  3001               	movlw	1
  3781     0F3A                     u2605:
  3782     0F3A  1003               	clrc
  3783     0F3B  0DF3               	rlf	___lwmod@divisor,f
  3784     0F3C  0DF4               	rlf	___lwmod@divisor+1,f
  3785     0F3D  3EFF               	addlw	-1
  3786     0F3E  1D03               	skipz
  3787     0F3F  2F3A               	goto	u2605
  3788     0F40                     l2313:
  3789     0F40  3001               	movlw	1
  3790     0F41  00F7               	movwf	??___lwmod
  3791     0F42  0877               	movf	??___lwmod,w
  3792     0F43  07A0               	addwf	___lwmod@counter,f
  3793     0F44                     l2315:
  3794     0F44  1FF4               	btfss	___lwmod@divisor+1,7
  3795     0F45  2F47               	goto	u2611
  3796     0F46  2F48               	goto	u2610
  3797     0F47                     u2611:
  3798     0F47  2F39               	goto	l2311
  3799     0F48                     u2610:
  3800     0F48                     l2317:
  3801     0F48  0874               	movf	___lwmod@divisor+1,w
  3802     0F49  0276               	subwf	___lwmod@dividend+1,w
  3803     0F4A  1D03               	skipz
  3804     0F4B  2F4E               	goto	u2625
  3805     0F4C  0873               	movf	___lwmod@divisor,w
  3806     0F4D  0275               	subwf	___lwmod@dividend,w
  3807     0F4E                     u2625:
  3808     0F4E  1C03               	skipc
  3809     0F4F  2F51               	goto	u2621
  3810     0F50  2F52               	goto	u2620
  3811     0F51                     u2621:
  3812     0F51  2F58               	goto	l2321
  3813     0F52                     u2620:
  3814     0F52                     l2319:
  3815     0F52  0873               	movf	___lwmod@divisor,w
  3816     0F53  02F5               	subwf	___lwmod@dividend,f
  3817     0F54  0874               	movf	___lwmod@divisor+1,w
  3818     0F55  1C03               	skipc
  3819     0F56  03F6               	decf	___lwmod@dividend+1,f
  3820     0F57  02F6               	subwf	___lwmod@dividend+1,f
  3821     0F58                     l2321:
  3822     0F58  3001               	movlw	1
  3823     0F59                     u2635:
  3824     0F59  1003               	clrc
  3825     0F5A  0CF4               	rrf	___lwmod@divisor+1,f
  3826     0F5B  0CF3               	rrf	___lwmod@divisor,f
  3827     0F5C  3EFF               	addlw	-1
  3828     0F5D  1D03               	skipz
  3829     0F5E  2F59               	goto	u2635
  3830     0F5F                     l2323:
  3831     0F5F  3001               	movlw	1
  3832     0F60  02A0               	subwf	___lwmod@counter,f
  3833     0F61  1D03               	btfss	3,2
  3834     0F62  2F64               	goto	u2641
  3835     0F63  2F65               	goto	u2640
  3836     0F64                     u2641:
  3837     0F64  2F48               	goto	l2317
  3838     0F65                     u2640:
  3839     0F65                     l2325:
  3840     0F65  0876               	movf	___lwmod@dividend+1,w
  3841     0F66  00F4               	movwf	?___lwmod+1
  3842     0F67  0875               	movf	___lwmod@dividend,w
  3843     0F68  00F3               	movwf	?___lwmod
  3844     0F69                     l605:
  3845     0F69  0008               	return
  3846     0F6A                     __end_of___lwmod:
  3847                           
  3848                           	psect	text11
  3849     0F6A                     __ptext11:	
  3850 ;; *************** function ___lwdiv *****************
  3851 ;; Defined at:
  3852 ;;		line 5 in file "C:\Program Files\Microchip\xc8\v2.40\pic\sources\c90\common\lwdiv.c"
  3853 ;; Parameters:    Size  Location     Type
  3854 ;;  divisor         2    3[COMMON] unsigned int 
  3855 ;;  dividend        2    5[COMMON] unsigned int 
  3856 ;; Auto vars:     Size  Location     Type
  3857 ;;  quotient        2    1[BANK0 ] unsigned int 
  3858 ;;  counter         1    0[BANK0 ] unsigned char 
  3859 ;; Return value:  Size  Location     Type
  3860 ;;                  2    3[COMMON] unsigned int 
  3861 ;; Registers used:
  3862 ;;		wreg, status,2, status,0
  3863 ;; Tracked objects:
  3864 ;;		On entry : 0/0
  3865 ;;		On exit  : 0/0
  3866 ;;		Unchanged: 0/0
  3867 ;; Data sizes:     COMMON   BANK0   BANK1   BANK3   BANK2
  3868 ;;      Params:         4       0       0       0       0
  3869 ;;      Locals:         0       3       0       0       0
  3870 ;;      Temps:          1       0       0       0       0
  3871 ;;      Totals:         5       3       0       0       0
  3872 ;;Total ram usage:        8 bytes
  3873 ;; Hardware stack levels used: 1
  3874 ;; Hardware stack levels required when called: 1
  3875 ;; This function calls:
  3876 ;;		Nothing
  3877 ;; This function is called by:
  3878 ;;		_main
  3879 ;; This function uses a non-reentrant model
  3880 ;;
  3881                           
  3882     0F6A                     ___lwdiv:	
  3883                           ;psect for function ___lwdiv
  3884                           
  3885     0F6A                     l2281:	
  3886                           ;incstack = 0
  3887                           ; Regs used in ___lwdiv: [wreg+status,2+status,0]
  3888                           
  3889     0F6A  1283               	bcf	3,5	;RP0=0, select bank0
  3890     0F6B  1303               	bcf	3,6	;RP1=0, select bank0
  3891     0F6C  01A1               	clrf	___lwdiv@quotient
  3892     0F6D  01A2               	clrf	___lwdiv@quotient+1
  3893     0F6E                     l2283:
  3894     0F6E  0873               	movf	___lwdiv@divisor,w
  3895     0F6F  0474               	iorwf	___lwdiv@divisor+1,w
  3896     0F70  1903               	btfsc	3,2
  3897     0F71  2F73               	goto	u2521
  3898     0F72  2F74               	goto	u2520
  3899     0F73                     u2521:
  3900     0F73  2FAB               	goto	l2303
  3901     0F74                     u2520:
  3902     0F74                     l2285:
  3903     0F74  01A0               	clrf	___lwdiv@counter
  3904     0F75  0AA0               	incf	___lwdiv@counter,f
  3905     0F76  2F82               	goto	l2291
  3906     0F77                     l2287:
  3907     0F77  3001               	movlw	1
  3908     0F78                     u2535:
  3909     0F78  1003               	clrc
  3910     0F79  0DF3               	rlf	___lwdiv@divisor,f
  3911     0F7A  0DF4               	rlf	___lwdiv@divisor+1,f
  3912     0F7B  3EFF               	addlw	-1
  3913     0F7C  1D03               	skipz
  3914     0F7D  2F78               	goto	u2535
  3915     0F7E                     l2289:
  3916     0F7E  3001               	movlw	1
  3917     0F7F  00F7               	movwf	??___lwdiv
  3918     0F80  0877               	movf	??___lwdiv,w
  3919     0F81  07A0               	addwf	___lwdiv@counter,f
  3920     0F82                     l2291:
  3921     0F82  1FF4               	btfss	___lwdiv@divisor+1,7
  3922     0F83  2F85               	goto	u2541
  3923     0F84  2F86               	goto	u2540
  3924     0F85                     u2541:
  3925     0F85  2F77               	goto	l2287
  3926     0F86                     u2540:
  3927     0F86                     l2293:
  3928     0F86  3001               	movlw	1
  3929     0F87                     u2555:
  3930     0F87  1003               	clrc
  3931     0F88  0DA1               	rlf	___lwdiv@quotient,f
  3932     0F89  0DA2               	rlf	___lwdiv@quotient+1,f
  3933     0F8A  3EFF               	addlw	-1
  3934     0F8B  1D03               	skipz
  3935     0F8C  2F87               	goto	u2555
  3936     0F8D  0874               	movf	___lwdiv@divisor+1,w
  3937     0F8E  0276               	subwf	___lwdiv@dividend+1,w
  3938     0F8F  1D03               	skipz
  3939     0F90  2F93               	goto	u2565
  3940     0F91  0873               	movf	___lwdiv@divisor,w
  3941     0F92  0275               	subwf	___lwdiv@dividend,w
  3942     0F93                     u2565:
  3943     0F93  1C03               	skipc
  3944     0F94  2F96               	goto	u2561
  3945     0F95  2F97               	goto	u2560
  3946     0F96                     u2561:
  3947     0F96  2F9E               	goto	l2299
  3948     0F97                     u2560:
  3949     0F97                     l2295:
  3950     0F97  0873               	movf	___lwdiv@divisor,w
  3951     0F98  02F5               	subwf	___lwdiv@dividend,f
  3952     0F99  0874               	movf	___lwdiv@divisor+1,w
  3953     0F9A  1C03               	skipc
  3954     0F9B  03F6               	decf	___lwdiv@dividend+1,f
  3955     0F9C  02F6               	subwf	___lwdiv@dividend+1,f
  3956     0F9D                     l2297:
  3957     0F9D  1421               	bsf	___lwdiv@quotient,0
  3958     0F9E                     l2299:
  3959     0F9E  3001               	movlw	1
  3960     0F9F                     u2575:
  3961     0F9F  1003               	clrc
  3962     0FA0  0CF4               	rrf	___lwdiv@divisor+1,f
  3963     0FA1  0CF3               	rrf	___lwdiv@divisor,f
  3964     0FA2  3EFF               	addlw	-1
  3965     0FA3  1D03               	skipz
  3966     0FA4  2F9F               	goto	u2575
  3967     0FA5                     l2301:
  3968     0FA5  3001               	movlw	1
  3969     0FA6  02A0               	subwf	___lwdiv@counter,f
  3970     0FA7  1D03               	btfss	3,2
  3971     0FA8  2FAA               	goto	u2581
  3972     0FA9  2FAB               	goto	u2580
  3973     0FAA                     u2581:
  3974     0FAA  2F86               	goto	l2293
  3975     0FAB                     u2580:
  3976     0FAB                     l2303:
  3977     0FAB  0822               	movf	___lwdiv@quotient+1,w
  3978     0FAC  00F4               	movwf	?___lwdiv+1
  3979     0FAD  0821               	movf	___lwdiv@quotient,w
  3980     0FAE  00F3               	movwf	?___lwdiv
  3981     0FAF                     l595:
  3982     0FAF  0008               	return
  3983     0FB0                     __end_of___lwdiv:
  3984                           
  3985                           	psect	text12
  3986     0780                     __ptext12:	
  3987 ;; *************** function ___awmod *****************
  3988 ;; Defined at:
  3989 ;;		line 5 in file "C:\Program Files\Microchip\xc8\v2.40\pic\sources\c90\common\awmod.c"
  3990 ;; Parameters:    Size  Location     Type
  3991 ;;  divisor         2    3[COMMON] int 
  3992 ;;  dividend        2    5[COMMON] int 
  3993 ;; Auto vars:     Size  Location     Type
  3994 ;;  sign            1    1[BANK0 ] unsigned char 
  3995 ;;  counter         1    0[BANK0 ] unsigned char 
  3996 ;; Return value:  Size  Location     Type
  3997 ;;                  2    3[COMMON] int 
  3998 ;; Registers used:
  3999 ;;		wreg, status,2, status,0
  4000 ;; Tracked objects:
  4001 ;;		On entry : 0/0
  4002 ;;		On exit  : 0/0
  4003 ;;		Unchanged: 0/0
  4004 ;; Data sizes:     COMMON   BANK0   BANK1   BANK3   BANK2
  4005 ;;      Params:         4       0       0       0       0
  4006 ;;      Locals:         0       2       0       0       0
  4007 ;;      Temps:          1       0       0       0       0
  4008 ;;      Totals:         5       2       0       0       0
  4009 ;;Total ram usage:        7 bytes
  4010 ;; Hardware stack levels used: 1
  4011 ;; Hardware stack levels required when called: 1
  4012 ;; This function calls:
  4013 ;;		Nothing
  4014 ;; This function is called by:
  4015 ;;		_main
  4016 ;; This function uses a non-reentrant model
  4017 ;;
  4018                           
  4019     0780                     ___awmod:	
  4020                           ;psect for function ___awmod
  4021                           
  4022     0780                     l2243:	
  4023                           ;incstack = 0
  4024                           ; Regs used in ___awmod: [wreg+status,2+status,0]
  4025                           
  4026     0780  1283               	bcf	3,5	;RP0=0, select bank0
  4027     0781  1303               	bcf	3,6	;RP1=0, select bank0
  4028     0782  01A1               	clrf	___awmod@sign
  4029     0783                     l2245:
  4030     0783  1FF6               	btfss	___awmod@dividend+1,7
  4031     0784  2F86               	goto	u2431
  4032     0785  2F87               	goto	u2430
  4033     0786                     u2431:
  4034     0786  2F8E               	goto	l2251
  4035     0787                     u2430:
  4036     0787                     l2247:
  4037     0787  09F5               	comf	___awmod@dividend,f
  4038     0788  09F6               	comf	___awmod@dividend+1,f
  4039     0789  0AF5               	incf	___awmod@dividend,f
  4040     078A  1903               	skipnz
  4041     078B  0AF6               	incf	___awmod@dividend+1,f
  4042     078C                     l2249:
  4043     078C  01A1               	clrf	___awmod@sign
  4044     078D  0AA1               	incf	___awmod@sign,f
  4045     078E                     l2251:
  4046     078E  1FF4               	btfss	___awmod@divisor+1,7
  4047     078F  2F91               	goto	u2441
  4048     0790  2F92               	goto	u2440
  4049     0791                     u2441:
  4050     0791  2F97               	goto	l2255
  4051     0792                     u2440:
  4052     0792                     l2253:
  4053     0792  09F3               	comf	___awmod@divisor,f
  4054     0793  09F4               	comf	___awmod@divisor+1,f
  4055     0794  0AF3               	incf	___awmod@divisor,f
  4056     0795  1903               	skipnz
  4057     0796  0AF4               	incf	___awmod@divisor+1,f
  4058     0797                     l2255:
  4059     0797  0873               	movf	___awmod@divisor,w
  4060     0798  0474               	iorwf	___awmod@divisor+1,w
  4061     0799  1903               	btfsc	3,2
  4062     079A  2F9C               	goto	u2451
  4063     079B  2F9D               	goto	u2450
  4064     079C                     u2451:
  4065     079C  2FCC               	goto	l2273
  4066     079D                     u2450:
  4067     079D                     l2257:
  4068     079D  01A0               	clrf	___awmod@counter
  4069     079E  0AA0               	incf	___awmod@counter,f
  4070     079F  2FAB               	goto	l2263
  4071     07A0                     l2259:
  4072     07A0  3001               	movlw	1
  4073     07A1                     u2465:
  4074     07A1  1003               	clrc
  4075     07A2  0DF3               	rlf	___awmod@divisor,f
  4076     07A3  0DF4               	rlf	___awmod@divisor+1,f
  4077     07A4  3EFF               	addlw	-1
  4078     07A5  1D03               	skipz
  4079     07A6  2FA1               	goto	u2465
  4080     07A7                     l2261:
  4081     07A7  3001               	movlw	1
  4082     07A8  00F7               	movwf	??___awmod
  4083     07A9  0877               	movf	??___awmod,w
  4084     07AA  07A0               	addwf	___awmod@counter,f
  4085     07AB                     l2263:
  4086     07AB  1FF4               	btfss	___awmod@divisor+1,7
  4087     07AC  2FAE               	goto	u2471
  4088     07AD  2FAF               	goto	u2470
  4089     07AE                     u2471:
  4090     07AE  2FA0               	goto	l2259
  4091     07AF                     u2470:
  4092     07AF                     l2265:
  4093     07AF  0874               	movf	___awmod@divisor+1,w
  4094     07B0  0276               	subwf	___awmod@dividend+1,w
  4095     07B1  1D03               	skipz
  4096     07B2  2FB5               	goto	u2485
  4097     07B3  0873               	movf	___awmod@divisor,w
  4098     07B4  0275               	subwf	___awmod@dividend,w
  4099     07B5                     u2485:
  4100     07B5  1C03               	skipc
  4101     07B6  2FB8               	goto	u2481
  4102     07B7  2FB9               	goto	u2480
  4103     07B8                     u2481:
  4104     07B8  2FBF               	goto	l2269
  4105     07B9                     u2480:
  4106     07B9                     l2267:
  4107     07B9  0873               	movf	___awmod@divisor,w
  4108     07BA  02F5               	subwf	___awmod@dividend,f
  4109     07BB  0874               	movf	___awmod@divisor+1,w
  4110     07BC  1C03               	skipc
  4111     07BD  03F6               	decf	___awmod@dividend+1,f
  4112     07BE  02F6               	subwf	___awmod@dividend+1,f
  4113     07BF                     l2269:
  4114     07BF  3001               	movlw	1
  4115     07C0                     u2495:
  4116     07C0  1003               	clrc
  4117     07C1  0CF4               	rrf	___awmod@divisor+1,f
  4118     07C2  0CF3               	rrf	___awmod@divisor,f
  4119     07C3  3EFF               	addlw	-1
  4120     07C4  1D03               	skipz
  4121     07C5  2FC0               	goto	u2495
  4122     07C6                     l2271:
  4123     07C6  3001               	movlw	1
  4124     07C7  02A0               	subwf	___awmod@counter,f
  4125     07C8  1D03               	btfss	3,2
  4126     07C9  2FCB               	goto	u2501
  4127     07CA  2FCC               	goto	u2500
  4128     07CB                     u2501:
  4129     07CB  2FAF               	goto	l2265
  4130     07CC                     u2500:
  4131     07CC                     l2273:
  4132     07CC  0821               	movf	___awmod@sign,w
  4133     07CD  1903               	btfsc	3,2
  4134     07CE  2FD0               	goto	u2511
  4135     07CF  2FD1               	goto	u2510
  4136     07D0                     u2511:
  4137     07D0  2FD6               	goto	l2277
  4138     07D1                     u2510:
  4139     07D1                     l2275:
  4140     07D1  09F5               	comf	___awmod@dividend,f
  4141     07D2  09F6               	comf	___awmod@dividend+1,f
  4142     07D3  0AF5               	incf	___awmod@dividend,f
  4143     07D4  1903               	skipnz
  4144     07D5  0AF6               	incf	___awmod@dividend+1,f
  4145     07D6                     l2277:
  4146     07D6  0876               	movf	___awmod@dividend+1,w
  4147     07D7  00F4               	movwf	?___awmod+1
  4148     07D8  0875               	movf	___awmod@dividend,w
  4149     07D9  00F3               	movwf	?___awmod
  4150     07DA                     l489:
  4151     07DA  0008               	return
  4152     07DB                     __end_of___awmod:
  4153                           
  4154                           	psect	text13
  4155     06B2                     __ptext13:	
  4156 ;; *************** function ___awdiv *****************
  4157 ;; Defined at:
  4158 ;;		line 5 in file "C:\Program Files\Microchip\xc8\v2.40\pic\sources\c90\common\awdiv.c"
  4159 ;; Parameters:    Size  Location     Type
  4160 ;;  divisor         2    3[COMMON] int 
  4161 ;;  dividend        2    5[COMMON] int 
  4162 ;; Auto vars:     Size  Location     Type
  4163 ;;  quotient        2    2[BANK0 ] int 
  4164 ;;  sign            1    1[BANK0 ] unsigned char 
  4165 ;;  counter         1    0[BANK0 ] unsigned char 
  4166 ;; Return value:  Size  Location     Type
  4167 ;;                  2    3[COMMON] int 
  4168 ;; Registers used:
  4169 ;;		wreg, status,2, status,0
  4170 ;; Tracked objects:
  4171 ;;		On entry : 0/0
  4172 ;;		On exit  : 0/0
  4173 ;;		Unchanged: 0/0
  4174 ;; Data sizes:     COMMON   BANK0   BANK1   BANK3   BANK2
  4175 ;;      Params:         4       0       0       0       0
  4176 ;;      Locals:         0       4       0       0       0
  4177 ;;      Temps:          1       0       0       0       0
  4178 ;;      Totals:         5       4       0       0       0
  4179 ;;Total ram usage:        9 bytes
  4180 ;; Hardware stack levels used: 1
  4181 ;; Hardware stack levels required when called: 1
  4182 ;; This function calls:
  4183 ;;		Nothing
  4184 ;; This function is called by:
  4185 ;;		_main
  4186 ;; This function uses a non-reentrant model
  4187 ;;
  4188                           
  4189     06B2                     ___awdiv:	
  4190                           ;psect for function ___awdiv
  4191                           
  4192     06B2                     l2199:	
  4193                           ;incstack = 0
  4194                           ; Regs used in ___awdiv: [wreg+status,2+status,0]
  4195                           
  4196     06B2  1283               	bcf	3,5	;RP0=0, select bank0
  4197     06B3  1303               	bcf	3,6	;RP1=0, select bank0
  4198     06B4  01A1               	clrf	___awdiv@sign
  4199     06B5                     l2201:
  4200     06B5  1FF4               	btfss	___awdiv@divisor+1,7
  4201     06B6  2EB8               	goto	u2331
  4202     06B7  2EB9               	goto	u2330
  4203     06B8                     u2331:
  4204     06B8  2EC0               	goto	l2207
  4205     06B9                     u2330:
  4206     06B9                     l2203:
  4207     06B9  09F3               	comf	___awdiv@divisor,f
  4208     06BA  09F4               	comf	___awdiv@divisor+1,f
  4209     06BB  0AF3               	incf	___awdiv@divisor,f
  4210     06BC  1903               	skipnz
  4211     06BD  0AF4               	incf	___awdiv@divisor+1,f
  4212     06BE                     l2205:
  4213     06BE  01A1               	clrf	___awdiv@sign
  4214     06BF  0AA1               	incf	___awdiv@sign,f
  4215     06C0                     l2207:
  4216     06C0  1FF6               	btfss	___awdiv@dividend+1,7
  4217     06C1  2EC3               	goto	u2341
  4218     06C2  2EC4               	goto	u2340
  4219     06C3                     u2341:
  4220     06C3  2ECD               	goto	l2213
  4221     06C4                     u2340:
  4222     06C4                     l2209:
  4223     06C4  09F5               	comf	___awdiv@dividend,f
  4224     06C5  09F6               	comf	___awdiv@dividend+1,f
  4225     06C6  0AF5               	incf	___awdiv@dividend,f
  4226     06C7  1903               	skipnz
  4227     06C8  0AF6               	incf	___awdiv@dividend+1,f
  4228     06C9                     l2211:
  4229     06C9  3001               	movlw	1
  4230     06CA  00F7               	movwf	??___awdiv
  4231     06CB  0877               	movf	??___awdiv,w
  4232     06CC  06A1               	xorwf	___awdiv@sign,f
  4233     06CD                     l2213:
  4234     06CD  01A2               	clrf	___awdiv@quotient
  4235     06CE  01A3               	clrf	___awdiv@quotient+1
  4236     06CF                     l2215:
  4237     06CF  0873               	movf	___awdiv@divisor,w
  4238     06D0  0474               	iorwf	___awdiv@divisor+1,w
  4239     06D1  1903               	btfsc	3,2
  4240     06D2  2ED4               	goto	u2351
  4241     06D3  2ED5               	goto	u2350
  4242     06D4                     u2351:
  4243     06D4  2F0C               	goto	l2235
  4244     06D5                     u2350:
  4245     06D5                     l2217:
  4246     06D5  01A0               	clrf	___awdiv@counter
  4247     06D6  0AA0               	incf	___awdiv@counter,f
  4248     06D7  2EE3               	goto	l2223
  4249     06D8                     l2219:
  4250     06D8  3001               	movlw	1
  4251     06D9                     u2365:
  4252     06D9  1003               	clrc
  4253     06DA  0DF3               	rlf	___awdiv@divisor,f
  4254     06DB  0DF4               	rlf	___awdiv@divisor+1,f
  4255     06DC  3EFF               	addlw	-1
  4256     06DD  1D03               	skipz
  4257     06DE  2ED9               	goto	u2365
  4258     06DF                     l2221:
  4259     06DF  3001               	movlw	1
  4260     06E0  00F7               	movwf	??___awdiv
  4261     06E1  0877               	movf	??___awdiv,w
  4262     06E2  07A0               	addwf	___awdiv@counter,f
  4263     06E3                     l2223:
  4264     06E3  1FF4               	btfss	___awdiv@divisor+1,7
  4265     06E4  2EE6               	goto	u2371
  4266     06E5  2EE7               	goto	u2370
  4267     06E6                     u2371:
  4268     06E6  2ED8               	goto	l2219
  4269     06E7                     u2370:
  4270     06E7                     l2225:
  4271     06E7  3001               	movlw	1
  4272     06E8                     u2385:
  4273     06E8  1003               	clrc
  4274     06E9  0DA2               	rlf	___awdiv@quotient,f
  4275     06EA  0DA3               	rlf	___awdiv@quotient+1,f
  4276     06EB  3EFF               	addlw	-1
  4277     06EC  1D03               	skipz
  4278     06ED  2EE8               	goto	u2385
  4279     06EE  0874               	movf	___awdiv@divisor+1,w
  4280     06EF  0276               	subwf	___awdiv@dividend+1,w
  4281     06F0  1D03               	skipz
  4282     06F1  2EF4               	goto	u2395
  4283     06F2  0873               	movf	___awdiv@divisor,w
  4284     06F3  0275               	subwf	___awdiv@dividend,w
  4285     06F4                     u2395:
  4286     06F4  1C03               	skipc
  4287     06F5  2EF7               	goto	u2391
  4288     06F6  2EF8               	goto	u2390
  4289     06F7                     u2391:
  4290     06F7  2EFF               	goto	l2231
  4291     06F8                     u2390:
  4292     06F8                     l2227:
  4293     06F8  0873               	movf	___awdiv@divisor,w
  4294     06F9  02F5               	subwf	___awdiv@dividend,f
  4295     06FA  0874               	movf	___awdiv@divisor+1,w
  4296     06FB  1C03               	skipc
  4297     06FC  03F6               	decf	___awdiv@dividend+1,f
  4298     06FD  02F6               	subwf	___awdiv@dividend+1,f
  4299     06FE                     l2229:
  4300     06FE  1422               	bsf	___awdiv@quotient,0
  4301     06FF                     l2231:
  4302     06FF  3001               	movlw	1
  4303     0700                     u2405:
  4304     0700  1003               	clrc
  4305     0701  0CF4               	rrf	___awdiv@divisor+1,f
  4306     0702  0CF3               	rrf	___awdiv@divisor,f
  4307     0703  3EFF               	addlw	-1
  4308     0704  1D03               	skipz
  4309     0705  2F00               	goto	u2405
  4310     0706                     l2233:
  4311     0706  3001               	movlw	1
  4312     0707  02A0               	subwf	___awdiv@counter,f
  4313     0708  1D03               	btfss	3,2
  4314     0709  2F0B               	goto	u2411
  4315     070A  2F0C               	goto	u2410
  4316     070B                     u2411:
  4317     070B  2EE7               	goto	l2225
  4318     070C                     u2410:
  4319     070C                     l2235:
  4320     070C  0821               	movf	___awdiv@sign,w
  4321     070D  1903               	btfsc	3,2
  4322     070E  2F10               	goto	u2421
  4323     070F  2F11               	goto	u2420
  4324     0710                     u2421:
  4325     0710  2F16               	goto	l2239
  4326     0711                     u2420:
  4327     0711                     l2237:
  4328     0711  09A2               	comf	___awdiv@quotient,f
  4329     0712  09A3               	comf	___awdiv@quotient+1,f
  4330     0713  0AA2               	incf	___awdiv@quotient,f
  4331     0714  1903               	skipnz
  4332     0715  0AA3               	incf	___awdiv@quotient+1,f
  4333     0716                     l2239:
  4334     0716  0823               	movf	___awdiv@quotient+1,w
  4335     0717  00F4               	movwf	?___awdiv+1
  4336     0718  0822               	movf	___awdiv@quotient,w
  4337     0719  00F3               	movwf	?___awdiv
  4338     071A                     l476:
  4339     071A  0008               	return
  4340     071B                     __end_of___awdiv:
  4341                           
  4342                           	psect	text14
  4343     0648                     __ptext14:	
  4344 ;; *************** function _isr *****************
  4345 ;; Defined at:
  4346 ;;		line 12 in file "isr.c"
  4347 ;; Parameters:    Size  Location     Type
  4348 ;;		None
  4349 ;; Auto vars:     Size  Location     Type
  4350 ;;		None
  4351 ;; Return value:  Size  Location     Type
  4352 ;;                  1    wreg      void 
  4353 ;; Registers used:
  4354 ;;		wreg, status,2, status,0
  4355 ;; Tracked objects:
  4356 ;;		On entry : 0/0
  4357 ;;		On exit  : 0/0
  4358 ;;		Unchanged: 0/0
  4359 ;; Data sizes:     COMMON   BANK0   BANK1   BANK3   BANK2
  4360 ;;      Params:         0       0       0       0       0
  4361 ;;      Locals:         0       0       0       0       0
  4362 ;;      Temps:          3       0       0       0       0
  4363 ;;      Totals:         3       0       0       0       0
  4364 ;;Total ram usage:        3 bytes
  4365 ;; Hardware stack levels used: 1
  4366 ;; This function calls:
  4367 ;;		Nothing
  4368 ;; This function is called by:
  4369 ;;		Interrupt level 1
  4370 ;; This function uses a non-reentrant model
  4371 ;;
  4372                           
  4373     0648                     _isr:	
  4374                           ;psect for function _isr
  4375                           
  4376     0648                     i1l1771:
  4377                           
  4378                           ;isr.c: 14:     static unsigned long int count = 0;;isr.c: 16:     if (TMR2IF == 1)
  4379     0648  1283               	bcf	3,5	;RP0=0, select bank0
  4380     0649  1303               	bcf	3,6	;RP1=0, select bank0
  4381     064A  1C8C               	btfss	12,1	;volatile
  4382     064B  2E4D               	goto	u163_21
  4383     064C  2E4E               	goto	u163_20
  4384     064D                     u163_21:
  4385     064D  2EAB               	goto	i1l28
  4386     064E                     u163_20:
  4387     064E                     i1l1773:
  4388                           
  4389                           ;isr.c: 17:     {;isr.c: 19:         if(++count == 200)
  4390     064E  3001               	movlw	1
  4391     064F  1683               	bsf	3,5	;RP0=1, select bank1
  4392     0650  1303               	bcf	3,6	;RP1=0, select bank1
  4393     0651  07C8               	addwf	isr@count^(0+128),f
  4394     0652  3000               	movlw	0
  4395     0653  1803               	skipnc
  4396     0654  3001               	movlw	1
  4397     0655  07C9               	addwf	(isr@count+1)^(0+128),f
  4398     0656  3000               	movlw	0
  4399     0657  1803               	skipnc
  4400     0658  3001               	movlw	1
  4401     0659  07CA               	addwf	(isr@count+2)^(0+128),f
  4402     065A  3000               	movlw	0
  4403     065B  1803               	skipnc
  4404     065C  3001               	movlw	1
  4405     065D  07CB               	addwf	(isr@count+3)^(0+128),f
  4406     065E  30C8               	movlw	200
  4407     065F  0648               	xorwf	isr@count^(0+128),w
  4408     0660  0449               	iorwf	(isr@count+1)^(0+128),w
  4409     0661  044A               	iorwf	(isr@count+2)^(0+128),w
  4410     0662  044B               	iorwf	(isr@count+3)^(0+128),w
  4411     0663  1D03               	btfss	3,2
  4412     0664  2E66               	goto	u164_21
  4413     0665  2E67               	goto	u164_20
  4414     0666                     u164_21:
  4415     0666  2E77               	goto	i1l1779
  4416     0667                     u164_20:
  4417     0667                     i1l1775:
  4418                           
  4419                           ;isr.c: 20:         {;isr.c: 21:             count = 0;
  4420     0667  3000               	movlw	0
  4421     0668  1683               	bsf	3,5	;RP0=1, select bank1
  4422     0669  1303               	bcf	3,6	;RP1=0, select bank1
  4423     066A  00CB               	movwf	(isr@count+3)^(0+128)
  4424     066B  3000               	movlw	0
  4425     066C  00CA               	movwf	(isr@count+2)^(0+128)
  4426     066D  3000               	movlw	0
  4427     066E  00C9               	movwf	(isr@count+1)^(0+128)
  4428     066F  3000               	movlw	0
  4429     0670  00C8               	movwf	isr@count^(0+128)
  4430     0671                     i1l1777:
  4431                           
  4432                           ;isr.c: 22:             csec++;
  4433     0671  3001               	movlw	1
  4434     0672  00F0               	movwf	??_isr
  4435     0673  0870               	movf	??_isr,w
  4436     0674  1283               	bcf	3,5	;RP0=0, select bank0
  4437     0675  1303               	bcf	3,6	;RP1=0, select bank0
  4438     0676  07ED               	addwf	_csec,f
  4439     0677                     i1l1779:
  4440                           
  4441                           ;isr.c: 24:         if(csec == 99)
  4442     0677  3063               	movlw	99
  4443     0678  1283               	bcf	3,5	;RP0=0, select bank0
  4444     0679  1303               	bcf	3,6	;RP1=0, select bank0
  4445     067A  066D               	xorwf	_csec,w
  4446     067B  1D03               	btfss	3,2
  4447     067C  2E7E               	goto	u165_21
  4448     067D  2E7F               	goto	u165_20
  4449     067E                     u165_21:
  4450     067E  2E88               	goto	i1l1785
  4451     067F                     u165_20:
  4452     067F                     i1l1781:
  4453                           
  4454                           ;isr.c: 25:         {;isr.c: 26:             csec = 0;
  4455     067F  01ED               	clrf	_csec
  4456     0680                     i1l1783:
  4457                           
  4458                           ;isr.c: 27:             sec++;
  4459     0680  3001               	movlw	1
  4460     0681  1683               	bsf	3,5	;RP0=1, select bank1
  4461     0682  1303               	bcf	3,6	;RP1=0, select bank1
  4462     0683  07DC               	addwf	_sec^(0+128),f
  4463     0684  1803               	skipnc
  4464     0685  0ADD               	incf	(_sec+1)^(0+128),f
  4465     0686  3000               	movlw	0
  4466     0687  07DD               	addwf	(_sec+1)^(0+128),f
  4467     0688                     i1l1785:
  4468                           
  4469                           ;isr.c: 29:         if(sec == 60)
  4470     0688  303C               	movlw	60
  4471     0689  1683               	bsf	3,5	;RP0=1, select bank1
  4472     068A  1303               	bcf	3,6	;RP1=0, select bank1
  4473     068B  065C               	xorwf	_sec^(0+128),w
  4474     068C  045D               	iorwf	(_sec+1)^(0+128),w
  4475     068D  1D03               	btfss	3,2
  4476     068E  2E90               	goto	u166_21
  4477     068F  2E91               	goto	u166_20
  4478     0690                     u166_21:
  4479     0690  2E99               	goto	i1l1791
  4480     0691                     u166_20:
  4481     0691                     i1l1787:
  4482                           
  4483                           ;isr.c: 30:         {;isr.c: 31:             sec = 0;
  4484     0691  01DC               	clrf	_sec^(0+128)
  4485     0692  01DD               	clrf	(_sec+1)^(0+128)
  4486     0693                     i1l1789:
  4487                           
  4488                           ;isr.c: 32:             minute++;
  4489     0693  3001               	movlw	1
  4490     0694  07DE               	addwf	_minute^(0+128),f
  4491     0695  1803               	skipnc
  4492     0696  0ADF               	incf	(_minute+1)^(0+128),f
  4493     0697  3000               	movlw	0
  4494     0698  07DF               	addwf	(_minute+1)^(0+128),f
  4495     0699                     i1l1791:
  4496                           
  4497                           ;isr.c: 34:         if(minute == 59)
  4498     0699  303B               	movlw	59
  4499     069A  065E               	xorwf	_minute^(0+128),w
  4500     069B  045F               	iorwf	(_minute+1)^(0+128),w
  4501     069C  1D03               	btfss	3,2
  4502     069D  2E9F               	goto	u167_21
  4503     069E  2EA0               	goto	u167_20
  4504     069F                     u167_21:
  4505     069F  2EA8               	goto	i1l1797
  4506     06A0                     u167_20:
  4507     06A0                     i1l1793:
  4508                           
  4509                           ;isr.c: 35:         {;isr.c: 36:             minute = 0;
  4510     06A0  01DE               	clrf	_minute^(0+128)
  4511     06A1  01DF               	clrf	(_minute+1)^(0+128)
  4512     06A2                     i1l1795:
  4513                           
  4514                           ;isr.c: 37:             hour++;
  4515     06A2  3001               	movlw	1
  4516     06A3  07E0               	addwf	_hour^(0+128),f
  4517     06A4  1803               	skipnc
  4518     06A5  0AE1               	incf	(_hour+1)^(0+128),f
  4519     06A6  3000               	movlw	0
  4520     06A7  07E1               	addwf	(_hour+1)^(0+128),f
  4521     06A8                     i1l1797:
  4522                           
  4523                           ;isr.c: 39:         TMR2IF = 0;
  4524     06A8  1283               	bcf	3,5	;RP0=0, select bank0
  4525     06A9  1303               	bcf	3,6	;RP1=0, select bank0
  4526     06AA  108C               	bcf	12,1	;volatile
  4527     06AB                     i1l28:
  4528     06AB  0872               	movf	??_isr+2,w
  4529     06AC  008A               	movwf	10
  4530     06AD  0E71               	swapf	??_isr+1,w
  4531     06AE  0083               	movwf	3
  4532     06AF  0EFE               	swapf	btemp,f
  4533     06B0  0E7E               	swapf	btemp,w
  4534     06B1  0009               	retfie
  4535     06B2                     __end_of_isr:
  4536     007E                     btemp	set	126	;btemp
  4537     007E                     wtemp0	set	126
  4538                           
  4539                           	psect	intentry
  4540     0004                     __pintentry:	
  4541                           ;incstack = 0
  4542                           ; Regs used in _isr: [wreg+status,2+status,0]
  4543                           
  4544     0004                     interrupt_function:
  4545     007E                     saved_w	set	btemp
  4546     0004  00FE               	movwf	btemp
  4547     0005  0E03               	swapf	3,w
  4548     0006  00F1               	movwf	??_isr+1
  4549     0007  080A               	movf	10,w
  4550     0008  00F2               	movwf	??_isr+2
  4551     0009  120A  118A  2E48   	ljmp	_isr
  4552                           
  4553                           	psect	config
  4554                           
  4555                           ;Config register CONFIG @ 0x2007
  4556                           ;	Oscillator Selection bits
  4557                           ;	FOSC = 0x3, unprogrammed default
  4558                           ;	Watchdog Timer Enable bit
  4559                           ;	WDTE = OFF, WDT disabled
  4560                           ;	Power-up Timer Enable bit
  4561                           ;	PWRTE = 0x1, unprogrammed default
  4562                           ;	Brown-out Reset Enable bit
  4563                           ;	BOREN = 0x1, unprogrammed default
  4564                           ;	Low-Voltage (Single-Supply) In-Circuit Serial Programming Enable bit
  4565                           ;	LVP = 0x1, unprogrammed default
  4566                           ;	Data EEPROM Memory Code Protection bit
  4567                           ;	CPD = 0x1, unprogrammed default
  4568                           ;	Flash Program Memory Write Enable bits
  4569                           ;	WRT = 0x3, unprogrammed default
  4570                           ;	In-Circuit Debugger Mode bit
  4571                           ;	DEBUG = 0x1, unprogrammed default
  4572                           ;	Flash Program Memory Code Protection bit
  4573                           ;	CP = 0x1, unprogrammed default
  4574     2007                     	org	8199
  4575     2007  3FFB               	dw	16379

Data Sizes:
    Strings     85
    Constant    0
    Data        93
    BSS         31
    Persistent  0
    Stack       0

Auto Spaces:
    Space          Size  Autos    Used
    COMMON           14      8      11
    BANK0            80     75      78
    BANK1            80     40      78
    BANK3            96      0      80
    BANK2            96      0       0

Pointer List with Targets:

    clcd_copy@csec	PTR const unsigned char  size(1) Largest target is 3
		 -> main@cesec(BANK1[3]), 

    clcd_copy@sec	PTR const unsigned char  size(1) Largest target is 3
		 -> main@secA(BANK1[3]), 

    clcd_copy@min	PTR const unsigned char  size(1) Largest target is 3
		 -> main@minA(BANK1[3]), 

    clcd_copy@hour	PTR const unsigned char  size(1) Largest target is 3
		 -> main@hourA(BANK1[3]), 

    clcd_copy@arr	PTR unsigned char  size(1) Largest target is 16
		 -> main@L4(BANK1[16]), main@L3(BANK0[16]), main@L2(BANK0[16]), main@L1(BANK0[16]), 
		 -> main@L0(BANK0[16]), 

    clcd_print@str	PTR const unsigned char  size(2) Largest target is 17
		 -> STR_11(CODE[17]), STR_10(CODE[17]), STR_9(CODE[17]), STR_8(CODE[17]), 
		 -> STR_7(CODE[17]), STR_6(CODE[17]), STR_5(CODE[17]), STR_4(CODE[17]), 
		 -> STR_3(CODE[17]), main@L4(BANK1[16]), main@L3(BANK0[16]), main@L2(BANK0[16]), 
		 -> main@L1(BANK0[16]), main@L0(BANK0[16]), main@hourA(BANK1[3]), main@minA(BANK1[3]), 
		 -> main@secA(BANK1[3]), main@cesec(BANK1[3]), STR_2(CODE[17]), STR_1(CODE[17]), 


Critical Paths under _main in COMMON

    _main->___awdiv
    _main->___awmod
    _main->___lwdiv
    _main->___lwmod
    _read_matrix_keypad->_scan_keypad
    _init_display_controller->_clcd_write
    _clcd_print->_clcd_write

Critical Paths under _isr in COMMON

    None.

Critical Paths under _main in BANK0

    _main->_clcd_copy
    _init_clcd->_init_display_controller

Critical Paths under _isr in BANK0

    None.

Critical Paths under _main in BANK1

    None.

Critical Paths under _isr in BANK1

    None.

Critical Paths under _main in BANK3

    None.

Critical Paths under _isr in BANK3

    None.

Critical Paths under _main in BANK2

    None.

Critical Paths under _isr in BANK2

    None.

Call Graph Tables:

 ---------------------------------------------------------------------------------
 (Depth) Function   	        Calls       Base Space   Used Autos Params    Refs
 ---------------------------------------------------------------------------------
 (0) _main                                               114   114      0   15549
                                              5 BANK0     70    70      0
                                              0 BANK1     40    40      0
                            ___awdiv
                            ___awmod
                            ___lwdiv
                            ___lwmod
                          _clcd_copy
                         _clcd_print
                        _init_config
                        _init_timer2
                 _read_matrix_keypad
 ---------------------------------------------------------------------------------
 (1) _read_matrix_keypad                                   2     2      0     294
                                              5 COMMON     2     2      0
                        _scan_keypad
 ---------------------------------------------------------------------------------
 (2) _scan_keypad                                          2     2      0     136
                                              3 COMMON     2     2      0
 ---------------------------------------------------------------------------------
 (1) _init_timer2                                          0     0      0       0
 ---------------------------------------------------------------------------------
 (1) _init_config                                          0     0      0    1083
                          _init_clcd
 ---------------------------------------------------------------------------------
 (2) _init_clcd                                            0     0      0    1083
            _init_display_controller
 ---------------------------------------------------------------------------------
 (3) _init_display_controller                              2     2      0    1083
                                              0 BANK0      2     2      0
                         _clcd_write
 ---------------------------------------------------------------------------------
 (1) _clcd_print                                           3     0      3    6399
                                              0 BANK0      3     0      3
                         _clcd_write
 ---------------------------------------------------------------------------------
 (4) _clcd_write                                           4     3      1    1083
                                              3 COMMON     4     3      1
 ---------------------------------------------------------------------------------
 (1) _clcd_copy                                            9     5      4    2639
                                              3 COMMON     4     0      4
                                              0 BANK0      5     5      0
 ---------------------------------------------------------------------------------
 (1) ___lwmod                                              6     2      4     772
                                              3 COMMON     5     1      4
                                              0 BANK0      1     1      0
 ---------------------------------------------------------------------------------
 (1) ___lwdiv                                              8     4      4     781
                                              3 COMMON     5     1      4
                                              0 BANK0      3     3      0
 ---------------------------------------------------------------------------------
 (1) ___awmod                                              7     3      4     613
                                              3 COMMON     5     1      4
                                              0 BANK0      2     2      0
 ---------------------------------------------------------------------------------
 (1) ___awdiv                                              9     5      4     625
                                              3 COMMON     5     1      4
                                              0 BANK0      4     4      0
 ---------------------------------------------------------------------------------
 Estimated maximum stack depth 4
 ---------------------------------------------------------------------------------
 (Depth) Function   	        Calls       Base Space   Used Autos Params    Refs
 ---------------------------------------------------------------------------------
 (5) _isr                                                  3     3      0       0
                                              0 COMMON     3     3      0
 ---------------------------------------------------------------------------------
 Estimated maximum stack depth 5
 ---------------------------------------------------------------------------------

 Call Graph Graphs:

 _main (ROOT)
   ___awdiv
   ___awmod
   ___lwdiv
   ___lwmod
   _clcd_copy
   _clcd_print
     _clcd_write
   _init_config
     _init_clcd
       _init_display_controller
         _clcd_write
   _init_timer2
   _read_matrix_keypad
     _scan_keypad

 _isr (ROOT)

 Address spaces:
Name               Size   Autos  Total    Cost      Usage
BANK3               60      0      50       9       83.3%
BITBANK3            60      0       0       8        0.0%
SFR3                 0      0       0       4        0.0%
BITSFR3              0      0       0       4        0.0%
BANK2               60      0       0      11        0.0%
BITBANK2            60      0       0      10        0.0%
SFR2                 0      0       0       5        0.0%
BITSFR2              0      0       0       5        0.0%
BANK1               50     28      4E       7       97.5%
BITBANK1            50      0       0       6        0.0%
SFR1                 0      0       0       2        0.0%
BITSFR1              0      0       0       2        0.0%
BANK0               50     4B      4E       5       97.5%
BITBANK0            50      0       0       4        0.0%
SFR0                 0      0       0       1        0.0%
BITSFR0              0      0       0       1        0.0%
COMMON               E      8       B       1       78.6%
BITCOMMON            E      0       0       0        0.0%
CODE                 0      0       0       0        0.0%
DATA                 0      0      F7      12        0.0%
ABS                  0      0      F7       3        0.0%
NULL                 0      0       0       0        0.0%
STACK                0      0       0       2        0.0%
EEDATA             100      0       0       0        0.0%


Microchip Technology PIC Macro Assembler V2.40 build 20220703182018 
Symbol Table                                                                                   Thu Sep 29 21:32:44 2022

                              pc 0002                   clcd_print@addr 0022                               l61 0E85  
                             l92 0210                               l94 022F                     ___awdiv@sign 0021  
                             fsr 0004                              l200 04CA                              l201 04C4  
                            l126 0EB1                              l222 0534                              l214 050A  
                            l206 04E0                              l143 0F2D                              l223 053C  
                            l215 0512                              l207 04E8                              l216 051E  
                            l208 04F4                              l225 0542                              l217 0518  
                            l209 04EE                              l233 07FD                              l146 0647  
                            l149 0E98                              l158 0EF7                              l169 05D6  
                            l605 0F69                              l197 04B6                              l198 04BE  
                            l199 0549                              l476 071A                              l489 07DA  
                            l595 0FAF                              _GIE 005F                              _RB0 0030  
                            _RB1 0031                              _RB2 0032                              _RD0 0040  
                            _RD1 0041                              _RD2 0042                              _RE1 0049  
                            _RD3 0043                              _RE2 004A                              _PR2 0092  
                            _sec 00DC                              _isr 0648                              fsr0 0004  
                            indf 0000                     ___awmod@sign 0021                             l2001 0E8E  
                           l2003 0E91                             l2011 04A4                             l2005 0E92  
                           l2101 0EA5                             l2021 04C2                             l2013 04A8  
                           l2111 0ECF                             l2007 0E93                             l2103 0EA9  
                           l2031 04CE                             l2015 04BC                             l2201 06B5  
                           l2113 0EDF                             l2105 0EAD                             l2041 04EC  
                           l2033 04D2                             l2009 049E                             l2121 07E7  
                           l2211 06C9                             l2203 06B9                             l2115 0EE7  
                           l2107 0EAE                             l2051 04F8                             l2035 04E6  
                           l2027 04C8                             l2131 07F3                             l2221 06DF  
                           l2213 06CD                             l2205 06BE                             l2301 0FA5  
                           l2109 0EC5                             l2061 0516                             l2053 04FC  
                           l2141 07FA                             l2117 07DC                             l2231 06FF  
                           l2223 06E3                             l2215 06CF                             l2207 06C0  
                           l2303 0FAB                             l2311 0F39                             l2071 0522  
                           l2055 0510                             l2047 04F2                             l2143 07FC  
                           l2127 07E9                             l2119 07E2                             l2233 0706  
                           l2225 06E7                             l2217 06D5                             l2209 06C4  
                           l2321 0F58                             l2313 0F40                             l2161 0567  
                           l2081 0540                             l2073 0526                             l2129 07EE  
                           l2401 025A                             l2227 06F8                             l2219 06D8  
                           l2235 070C                             l2251 078E                             l2243 0780  
                           l2323 0F5F                             l2315 0F44                             l2307 0F2E  
                           l2171 0583                             l2163 0570                             l2155 0551  
                           l2147 054D                             l2091 0548                             l2075 053A  
                           l2067 051C                             l2139 07F5                             l2411 0285  
                           l2403 025C                             l2331 004C                             l2237 0711  
                           l2229 06FE                             l2261 07A7                             l2253 0792  
                           l2245 0783                             l2317 0F48                             l2309 0F34  
                           l2325 0F65                             l2181 05A1                             l2173 0589  
                           l2157 055D                             l2149 054D                             l2421 02E2  
                           l2413 028C                             l2405 0269                             l2341 0080  
                           l2333 004C                             l2239 0716                             l2271 07C6  
                           l2263 07AB                             l2255 0797                             l2247 0787  
                           l2319 0F52                             l2191 05B8                             l2183 05A5  
                           l2175 0592                             l2167 0574                             l2159 0561  
                           l2095 0E7E                             l2087 0546                             l2431 033D  
                           l2423 02EA                             l2407 0276                             l2415 0292  
                           l2351 00B1                             l2343 0081                             l2335 0059  
                           l2265 07AF                             l2257 079D                             l2273 07CC  
                           l2249 078C                             l2281 0F6A                             l2193 05C3  
                           l2185 05AB                             l2169 057F                             l2097 0E83  
                           l2441 0377                             l2433 034A                             l2425 02F2  
                           l2417 0299                             l2409 027F                             l2361 0119  
                           l2353 00C7                             l2345 0082                             l2337 0066  
                           l2329 0042                             l2275 07D1                             l2267 07B9  
                           l2259 07A0                             l2291 0F82                             l2283 0F6E  
                           l2195 05C7                             l2187 05B4                             l2179 0596  
                           l2099 0E84                             l2451 03B6                             l2443 0385  
                           l2435 0353                             l2427 0326                             l2419 02A1  
                           l2371 0187                             l2363 0133                             l2355 00DD  
                           l2347 0083                             l2339 007D                             l2277 07D6  
                           l2269 07BF                             l2293 0F86                             l2285 0F74  
                           l2197 05CD                             l2461 03E1                             l2453 03BE  
                           l2445 0392                             l2437 0361                             l2429 032F  
                           l2381 01C9                             l2373 019C                             l2365 0148  
                           l2357 00F3                             l2349 009B                             l2199 06B2  
                           l2295 0F97                             l2287 0F77                             l2471 0417  
                           l2455 03CC                             l2447 039B                             l2439 036E  
                           l2463 03E7                             l2391 0236                             l2383 01E5  
                           l2375 01B1                             l2367 015D                             l2359 0101  
                           l2297 0F9D                             l2289 0F7E                             l2481 0477  
                           l2473 0431                             l2465 03EF                             l2457 03D9  
                           l2449 03A9                             l2393 023E                             l2385 01F0  
                           l2377 01B9                             l2369 0172                             l2299 0F9E  
                           l2483 0480                             l2475 043A                             l2467 03F5  
                           l2459 03DF                             l2395 0244                             l2387 01F8  
                           l2379 01C3                             l2477 0454                             l2469 040F  
                           l2397 0252                             l2389 0219                             l2479 045D  
                           l2399 0258                             l1961 0F06                             l1971 0F1C  
                           l1963 0F07                             l1973 0F21                             l1965 0F0C  
                           l1957 0EF9                             l1981 05E9                             l1975 0F24  
                           l1967 0F0F                             l1959 0F03                             l1991 0613  
                           l1983 05FB                             l1969 0F1B                             l1993 0621  
                           l1985 0602                             l1977 05D7                             l1995 0628  
                           l1987 0609                             l1979 05E2                             l1997 0639  
                           l1989 060C                             l1999 0640                             ?_isr 0070  
                           STR_1 075E                             STR_2 076F                             STR_3 072B  
                           STR_4 075E                             STR_5 076F                             STR_6 074D  
                           STR_7 073C                             STR_8 073C                             STR_9 073C  
                           u2100 04C2                             u2101 04C1                             u2110 04C8  
                           u2111 04C7                             u2200 0534                             u2120 04E0  
                           u3000 045D                             u2201 0533                             u2121 04DF  
                           u3001 045C                             u2050 0F00                             u2210 053A  
                           u2130 04E6                             u3010 0480                             u2051 0EFC  
                           u2211 0539                             u2131 04E5                             u3011 047F  
                           u2300 0592                             u2220 0540                             u2140 04EC  
                           u2301 0591                             u2221 053F                             u2141 04EB  
                           u2310 05B4                             u2230 0546                             u2150 04F2  
                           u2311 05B3                             u2231 0545                             u2151 04F1  
                           u2320 05D6                             u2064 0F03                             u2240 0EF7  
                           u2160 050A                             u2080 04B6                             u2321 05D5  
                           u2241 0EF6                             u2161 0509                             u2081 04B5  
                           u2410 070C                             u2330 06B9                             u2170 0510  
                           u2090 04BC                             u2250 07E7                             u2411 070B  
                           u2331 06B8                             u3107 0F1E                             u2075 0F13  
                           u3027 05DD                             u2171 050F                             u2091 04BB  
                           u2251 07E6                             u2420 0711                             u2340 06C4  
                           u2500 07CC                             u2180 0516                             u2260 07EE  
                           u2421 0710                             u2405 0700                             u2341 06C3  
                           u2501 07CB                             u3117 0F28                             u3037 05EF  
                           u2181 0515                             u2261 07ED                             u2350 06D5  
                           u2510 07D1                             u2430 0787                             u2190 051C  
                           u2270 07F3                             u2351 06D4                             u2511 07D0  
                           u2431 0786                             u3047 05FF                             u2191 051B  
                           u2271 07F2                             u2440 0792                             u2520 0F74  
                           u2280 07FA                             u2441 0791                             u2521 0F73  
                           u3057 0617                             u2281 07F9                             u2370 06E7  
                           u2450 079D                             u2610 0F48                             u2290 0570  
                           u2371 06E6                             u2451 079C                             u2611 0F47  
                           u2291 056F                             u3067 0625                             u2540 0F86  
                           u2620 0F52                             u2700 00E5                             u2365 06D9  
                           u2541 0F85                             u2621 0F51                             u2605 0F3A  
                           u3077 0635                             u2390 06F8                             u2470 07AF  
                           u2710 01B9                             u2391 06F7                             u2471 07AE  
                           u2535 0F78                             u3087 0644                             u2711 01B8  
                           u2480 07B9                             u2560 0F97                             u2640 0F65  
                           u2800 0219                             u2720 01C9                             u2385 06E8  
                           u2481 07B8                             u2465 07A1                             u2561 0F96  
                           u2641 0F64                             u2625 0F4E                             u3097 0F09  
                           u2801 0218                             u2721 01C8                             u2810 0220  
                           u2730 01D4                             u2650 0070                             u2395 06F4  
                           u2555 0F87                             u2635 0F59                             u2811 021E  
                           u2731 01D0                             u2580 0FAB                             u2900 02F2  
                           u2820 0221                             u2660 008D                             u2485 07B5  
                           u2581 0FAA                             u2565 0F93                             u2901 02F1  
                           u2590 0F34                             u2910 032F                             u2830 0236  
                           u2750 01DE                             u2670 00A3                             u2495 07C0  
                           u2575 0F9F                             u2591 0F33                             u2911 032E  
                           u2831 0235                             u2751 01DC                             u2920 0353  
                           u2840 023E                             u2760 01DF                             u2744 01D7  
                           u2680 00B9                             u2921 0352                             u2841 023D  
                           u2930 0377                             u2850 027F                             u2770 01F8  
                           u2690 00CF                             u2931 0376                             u2851 027E  
                           u2771 01F7                             _PEIE 005E                             u2940 039B  
                           u2860 028C                             u2780 0201                             u2941 039A  
                           u2861 028B                             u2781 01FF                             u2950 03BE  
                           u2870 0299                             u2790 0202                             u2951 03BD  
                           u2871 0298                             u2960 03EF                             u2880 02A1  
                           u2961 03EE                             u2881 02A0                             u2970 03F5  
                           u2890 02EA                             u2971 03F4                             u2891 02E9  
                           i1l28 06AB                             u2980 0417                             u2981 0416  
                           u2990 043A                             u2991 0439                             _flag 0078  
                           _csec 006D                             _main 0042                             _hour 00E0  
                           btemp 007E                             start 000C                   clcd_write@byte 0076  
                 clcd_write@mode 0073                _tmr_flag@main$F72 00D6                            ??_isr 0070  
                          ?_main 0070                  __end_of___awdiv 071B                            STR_10 073C  
                          STR_11 073C                  __end_of___awmod 07DB                  ___awdiv@divisor 0073  
                __end_of___lwdiv 0FB0                  __end_of___lwmod 0F6A                     ?_init_config 0070  
                ___awdiv@counter 0020                            _PORTD 0008                            _TRISB 0086  
                          _TRISD 0088                     main@key_copy 00C6                     ?_init_timer2 0070  
                          _nRBPU 040F               _read_matrix_keypad 07DB                            pclath 000A  
            ?_read_matrix_keypad 0070                            status 0003                            wtemp0 007E  
                   ?_scan_keypad 0070                  __initialization 000F                     __end_of_main 049E  
           ??_read_matrix_keypad 0075                           ??_main 0025                 ___awdiv@dividend 0075  
                         i1l1771 0648                           i1l1781 067F                           i1l1773 064E  
                         i1l1791 0699                           i1l1783 0680                           i1l1775 0667  
                         i1l1793 06A0                           i1l1785 0688                           i1l1777 0671  
                         i1l1795 06A2                           i1l1787 0691                           i1l1779 0677  
                         i1l1797 06A8                           i1l1789 0693                           u163_20 064E  
                         u163_21 064D                           u164_20 0667                           u164_21 0666  
                         u165_20 067F                           u165_21 067E                           u166_20 0691  
                         u166_21 0690                           u167_20 06A0                           u167_21 069F  
                         _TMR2IE 0461                           _TMR2IF 0061                           _TMR2ON 0092  
                         _TRISE1 0449                           _TRISE2 044A          _init_display_controller 05D7  
                      ??___awdiv 0077                        ??___awmod 0077                        ??___lwdiv 0077  
                      ??___lwmod 0077                 ___awdiv@quotient 0022                           _minute 00DE  
                ___awmod@divisor 0073                  ___awmod@counter 0020                           main@L0 0029  
                         main@L1 0039                           main@L2 0049                           main@L3 0059  
                         main@L4 00A0                     __pdataCOMMON 007A                           saved_w 007E  
                  main@view_flag 00CC          __end_of__initialization 003E                   __pcstackCOMMON 0070  
                   __pidataBANK1 0E99                     __pidataBANK3 0FB0                       __pbssBANK0 006B  
                     __pbssBANK1 00C8        ??_init_display_controller 0020                       _clcd_print 0EC5  
                     _clcd_write 0EF8                       __pmaintext 0042                       __pintentry 0004  
                        _T2CKPS0 0090                          _T2CKPS1 0091                   main@laps_count 00CE  
                     __stringtab 071B                __end_of_clcd_copy 05D7                          ___awdiv 06B2  
                        ___awmod 0780                          ___lwdiv 0F6A                          ___lwmod 0F2E  
                        __ptext1 07DB                          __ptext2 049E                          __ptext3 0EA5  
                        __ptext4 0E7E                          __ptext5 0E8E                          __ptext6 05D7  
                        __ptext7 0EC5                          __ptext8 0EF8                          __ptext9 054A  
__end_of_init_display_controller 0648                __end_of_init_clcd 0E99                 ___awmod@dividend 0075  
                     clcd_copy@i 0023                          main@sw1 006B                          main@sw2 00D2  
                        main@sw3 00D0                          main@key 0069                          clrloop0 0E87  
           end_of_initialization 003E                    clcd_copy@csec 0076                    clcd_copy@hour 0073  
                    ?_clcd_print 0020                      ?_clcd_write 0073                    clcd_print@str 0020  
                  __pidataCOMMON 07FE              start_initialization 000F                     scan_keypad@i 0073  
         read_matrix_keypad@mode 0075           read_matrix_keypad@once 007A                      __end_of_isr 06B2  
                     init_fetch0 0EB2                      __pdataBANK1 00E2                      __pdataBANK3 0190  
                  ??_init_config 0077                    ??_init_timer2 0073                      __pbssCOMMON 0078  
                      ___latbits 0002                    __pcstackBANK0 0020                    __pcstackBANK1 00A0  
                  ??_scan_keypad 0073                        _clcd_copy 054A                 ___lwdiv@dividend 0075  
                       ?___awdiv 0073                         ?___awmod 0073                         ?___lwdiv 0073  
                       ?___lwmod 0073                        __pstrings 071B                 ___lwdiv@quotient 0021  
                      _init_clcd 0E8E              __end_of_init_config 0E86              __end_of_init_timer2 0EB2  
       ?_init_display_controller 0070                interrupt_function 0004                     clcd_copy@arr 0022  
                      clear_ram0 0E86                     clcd_copy@min 0074                     clcd_copy@sec 0075  
                   ??_clcd_print 0077                     ??_clcd_write 0074                       ?_clcd_copy 0073  
            __end_of_scan_keypad 054A                      __stringbase 072A                        main@cesec 00BA  
                      main@hourA 00C3                        main@watch 00B0               __end_of_clcd_print 0EF8  
             __end_of_clcd_write 0F2E                       ?_init_clcd 0070            read_matrix_keypad@key 0076  
     __end_of_read_matrix_keypad 07FE               __end_of__stringtab 072B                      _init_config 0E7E  
                    _init_timer2 0EA5                  ___lwdiv@divisor 0073                  ___lwdiv@counter 0020  
                       __ptext10 0F2E                         __ptext11 0F6A                         __ptext12 0780  
                       __ptext13 06B2                         __ptext14 0648                         _dis_flag 00D8  
              _dis_flag@main$F73 00D4                      _scan_keypad 049E                      ??_clcd_copy 0020  
                       main@F891 01D0                         main@F893 01C0                         main@F885 00E2  
                       main@F895 01B0                         main@F897 01A0                         main@F899 0190  
                       _tmr_flag 00DA                         main@minA 00C0                         main@secA 00BD  
                       main@laps 00EC                         isr@count 00C8                         init_ram0 0EB6  
                    ??_init_clcd 0077                         intlevel1 0000                 ___lwmod@dividend 0075  
                      stringcode 0725                  ___lwmod@divisor 0073                  ___lwmod@counter 0020  
                       stringdir 0725                         stringtab 071B  
